
47_Nixie_clock.elf:     file format elf32-avr

Sections:
Idx Name          Size      VMA       LMA       File off  Algn
  0 .text         00000704  00000000  00000000  00000094  2**1
                  CONTENTS, ALLOC, LOAD, READONLY, CODE
  1 .data         00000002  00800060  00000704  00000798  2**0
                  CONTENTS, ALLOC, LOAD, DATA
  2 .bss          00000014  00800062  00800062  0000079a  2**0
                  ALLOC
  3 .stab         000006cc  00000000  00000000  0000079c  2**2
                  CONTENTS, READONLY, DEBUGGING
  4 .stabstr      00000097  00000000  00000000  00000e68  2**0
                  CONTENTS, READONLY, DEBUGGING
  5 .comment      0000002f  00000000  00000000  00000eff  2**0
                  CONTENTS, READONLY

Disassembly of section .text:

00000000 <__vectors>:
   0:	0c 94 2a 00 	jmp	0x54	; 0x54 <__ctors_end>
   4:	0c 94 51 00 	jmp	0xa2	; 0xa2 <__vector_1>
   8:	0c 94 47 00 	jmp	0x8e	; 0x8e <__bad_interrupt>
   c:	0c 94 c9 02 	jmp	0x592	; 0x592 <__vector_3>
  10:	0c 94 47 00 	jmp	0x8e	; 0x8e <__bad_interrupt>
  14:	0c 94 47 00 	jmp	0x8e	; 0x8e <__bad_interrupt>
  18:	0c 94 47 00 	jmp	0x8e	; 0x8e <__bad_interrupt>
  1c:	0c 94 47 00 	jmp	0x8e	; 0x8e <__bad_interrupt>
  20:	0c 94 47 00 	jmp	0x8e	; 0x8e <__bad_interrupt>
  24:	0c 94 47 00 	jmp	0x8e	; 0x8e <__bad_interrupt>
  28:	0c 94 47 00 	jmp	0x8e	; 0x8e <__bad_interrupt>
  2c:	0c 94 47 00 	jmp	0x8e	; 0x8e <__bad_interrupt>
  30:	0c 94 47 00 	jmp	0x8e	; 0x8e <__bad_interrupt>
  34:	0c 94 47 00 	jmp	0x8e	; 0x8e <__bad_interrupt>
  38:	0c 94 47 00 	jmp	0x8e	; 0x8e <__bad_interrupt>
  3c:	0c 94 47 00 	jmp	0x8e	; 0x8e <__bad_interrupt>
  40:	0c 94 47 00 	jmp	0x8e	; 0x8e <__bad_interrupt>
  44:	0c 94 47 00 	jmp	0x8e	; 0x8e <__bad_interrupt>
  48:	0c 94 47 00 	jmp	0x8e	; 0x8e <__bad_interrupt>
  4c:	0c 94 34 01 	jmp	0x268	; 0x268 <__vector_19>
  50:	0c 94 47 00 	jmp	0x8e	; 0x8e <__bad_interrupt>

00000054 <__ctors_end>:
  54:	11 24       	eor	r1, r1
  56:	1f be       	out	0x3f, r1	; 63
  58:	cf e5       	ldi	r28, 0x5F	; 95
  5a:	d4 e0       	ldi	r29, 0x04	; 4
  5c:	de bf       	out	0x3e, r29	; 62
  5e:	cd bf       	out	0x3d, r28	; 61

00000060 <__do_copy_data>:
  60:	10 e0       	ldi	r17, 0x00	; 0
  62:	a0 e6       	ldi	r26, 0x60	; 96
  64:	b0 e0       	ldi	r27, 0x00	; 0
  66:	e4 e0       	ldi	r30, 0x04	; 4
  68:	f7 e0       	ldi	r31, 0x07	; 7
  6a:	02 c0       	rjmp	.+4      	; 0x70 <__do_copy_data+0x10>
  6c:	05 90       	lpm	r0, Z+
  6e:	0d 92       	st	X+, r0
  70:	a2 36       	cpi	r26, 0x62	; 98
  72:	b1 07       	cpc	r27, r17
  74:	d9 f7       	brne	.-10     	; 0x6c <__do_copy_data+0xc>

00000076 <__do_clear_bss>:
  76:	20 e0       	ldi	r18, 0x00	; 0
  78:	a2 e6       	ldi	r26, 0x62	; 98
  7a:	b0 e0       	ldi	r27, 0x00	; 0
  7c:	01 c0       	rjmp	.+2      	; 0x80 <.do_clear_bss_start>

0000007e <.do_clear_bss_loop>:
  7e:	1d 92       	st	X+, r1

00000080 <.do_clear_bss_start>:
  80:	a6 37       	cpi	r26, 0x76	; 118
  82:	b2 07       	cpc	r27, r18
  84:	e1 f7       	brne	.-8      	; 0x7e <.do_clear_bss_loop>
  86:	0e 94 f8 02 	call	0x5f0	; 0x5f0 <main>
  8a:	0c 94 80 03 	jmp	0x700	; 0x700 <_exit>

0000008e <__bad_interrupt>:
  8e:	0c 94 00 00 	jmp	0	; 0x0 <__vectors>

00000092 <rtc_isr_init>:
  92:	85 b7       	in	r24, 0x35	; 53
  94:	83 60       	ori	r24, 0x03	; 3
  96:	85 bf       	out	0x35, r24	; 53
  98:	8b b7       	in	r24, 0x3b	; 59
  9a:	80 64       	ori	r24, 0x40	; 64
  9c:	8b bf       	out	0x3b, r24	; 59
  9e:	92 9a       	sbi	0x12, 2	; 18
  a0:	08 95       	ret

000000a2 <__vector_1>:
  a2:	1f 92       	push	r1
  a4:	0f 92       	push	r0
  a6:	0f b6       	in	r0, 0x3f	; 63
  a8:	0f 92       	push	r0
  aa:	11 24       	eor	r1, r1
  ac:	8f 93       	push	r24
  ae:	81 e0       	ldi	r24, 0x01	; 1
  b0:	80 93 6b 00 	sts	0x006B, r24
  b4:	8f 91       	pop	r24
  b6:	0f 90       	pop	r0
  b8:	0f be       	out	0x3f, r0	; 63
  ba:	0f 90       	pop	r0
  bc:	1f 90       	pop	r1
  be:	18 95       	reti

000000c0 <dec2bcd>:
  c0:	6a e0       	ldi	r22, 0x0A	; 10
  c2:	0e 94 60 03 	call	0x6c0	; 0x6c0 <__udivmodqi4>
  c6:	29 2f       	mov	r18, r25
  c8:	30 e1       	ldi	r19, 0x10	; 16
  ca:	83 9f       	mul	r24, r19
  cc:	c0 01       	movw	r24, r0
  ce:	11 24       	eor	r1, r1
  d0:	82 2b       	or	r24, r18
  d2:	08 95       	ret

000000d4 <bcd2dec>:
  d4:	98 2f       	mov	r25, r24
  d6:	92 95       	swap	r25
  d8:	9f 70       	andi	r25, 0x0F	; 15
  da:	8f 70       	andi	r24, 0x0F	; 15
  dc:	2a e0       	ldi	r18, 0x0A	; 10
  de:	92 9f       	mul	r25, r18
  e0:	80 0d       	add	r24, r0
  e2:	11 24       	eor	r1, r1
  e4:	08 95       	ret

000000e6 <inc_godz>:
  e6:	cf 93       	push	r28
  e8:	df 93       	push	r29
  ea:	80 91 66 00 	lds	r24, 0x0066
  ee:	0e 94 6a 00 	call	0xd4	; 0xd4 <bcd2dec>
  f2:	80 93 6a 00 	sts	0x006A, r24
  f6:	80 91 67 00 	lds	r24, 0x0067
  fa:	0e 94 6a 00 	call	0xd4	; 0xd4 <bcd2dec>
  fe:	d8 2f       	mov	r29, r24
 100:	80 93 69 00 	sts	0x0069, r24
 104:	80 91 68 00 	lds	r24, 0x0068
 108:	0e 94 6a 00 	call	0xd4	; 0xd4 <bcd2dec>
 10c:	87 31       	cpi	r24, 0x17	; 23
 10e:	18 f4       	brcc	.+6      	; 0x116 <inc_godz+0x30>
 110:	c8 2f       	mov	r28, r24
 112:	cf 5f       	subi	r28, 0xFF	; 255
 114:	01 c0       	rjmp	.+2      	; 0x118 <inc_godz+0x32>
 116:	c0 e0       	ldi	r28, 0x00	; 0
 118:	c0 93 64 00 	sts	0x0064, r28
 11c:	10 92 65 00 	sts	0x0065, r1
 120:	10 92 66 00 	sts	0x0066, r1
 124:	8d 2f       	mov	r24, r29
 126:	0e 94 60 00 	call	0xc0	; 0xc0 <dec2bcd>
 12a:	80 93 67 00 	sts	0x0067, r24
 12e:	8c 2f       	mov	r24, r28
 130:	0e 94 60 00 	call	0xc0	; 0xc0 <dec2bcd>
 134:	80 93 68 00 	sts	0x0068, r24
 138:	25 e6       	ldi	r18, 0x65	; 101
 13a:	30 e0       	ldi	r19, 0x00	; 0
 13c:	44 e0       	ldi	r20, 0x04	; 4
 13e:	61 e0       	ldi	r22, 0x01	; 1
 140:	82 ea       	ldi	r24, 0xA2	; 162
 142:	df 91       	pop	r29
 144:	cf 91       	pop	r28
 146:	0c 94 d7 01 	jmp	0x3ae	; 0x3ae <TWI_write_buf>

0000014a <inc_min>:
 14a:	cf 93       	push	r28
 14c:	df 93       	push	r29
 14e:	80 91 66 00 	lds	r24, 0x0066
 152:	0e 94 6a 00 	call	0xd4	; 0xd4 <bcd2dec>
 156:	80 93 6a 00 	sts	0x006A, r24
 15a:	80 91 67 00 	lds	r24, 0x0067
 15e:	0e 94 6a 00 	call	0xd4	; 0xd4 <bcd2dec>
 162:	d8 2f       	mov	r29, r24
 164:	80 91 68 00 	lds	r24, 0x0068
 168:	0e 94 6a 00 	call	0xd4	; 0xd4 <bcd2dec>
 16c:	c8 2f       	mov	r28, r24
 16e:	80 93 64 00 	sts	0x0064, r24
 172:	db 33       	cpi	r29, 0x3B	; 59
 174:	18 f4       	brcc	.+6      	; 0x17c <inc_min+0x32>
 176:	8d 2f       	mov	r24, r29
 178:	8f 5f       	subi	r24, 0xFF	; 255
 17a:	01 c0       	rjmp	.+2      	; 0x17e <inc_min+0x34>
 17c:	80 e0       	ldi	r24, 0x00	; 0
 17e:	80 93 69 00 	sts	0x0069, r24
 182:	10 92 65 00 	sts	0x0065, r1
 186:	10 92 66 00 	sts	0x0066, r1
 18a:	0e 94 60 00 	call	0xc0	; 0xc0 <dec2bcd>
 18e:	80 93 67 00 	sts	0x0067, r24
 192:	8c 2f       	mov	r24, r28
 194:	0e 94 60 00 	call	0xc0	; 0xc0 <dec2bcd>
 198:	80 93 68 00 	sts	0x0068, r24
 19c:	25 e6       	ldi	r18, 0x65	; 101
 19e:	30 e0       	ldi	r19, 0x00	; 0
 1a0:	44 e0       	ldi	r20, 0x04	; 4
 1a2:	61 e0       	ldi	r22, 0x01	; 1
 1a4:	82 ea       	ldi	r24, 0xA2	; 162
 1a6:	df 91       	pop	r29
 1a8:	cf 91       	pop	r28
 1aa:	0c 94 d7 01 	jmp	0x3ae	; 0x3ae <TWI_write_buf>

000001ae <sw_init>:
 1ae:	85 b3       	in	r24, 0x15	; 21
 1b0:	80 6c       	ori	r24, 0xC0	; 192
 1b2:	85 bb       	out	0x15, r24	; 21
 1b4:	84 b3       	in	r24, 0x14	; 20
 1b6:	8f 73       	andi	r24, 0x3F	; 63
 1b8:	84 bb       	out	0x14, r24	; 20
 1ba:	08 95       	ret

000001bc <lamp_disp_init>:
 1bc:	8b b3       	in	r24, 0x1b	; 27
 1be:	1b ba       	out	0x1b, r1	; 27
 1c0:	85 b3       	in	r24, 0x15	; 21
 1c2:	83 7f       	andi	r24, 0xF3	; 243
 1c4:	85 bb       	out	0x15, r24	; 21
 1c6:	82 b3       	in	r24, 0x12	; 18
 1c8:	8f 70       	andi	r24, 0x0F	; 15
 1ca:	82 bb       	out	0x12, r24	; 18
 1cc:	81 b3       	in	r24, 0x11	; 17
 1ce:	80 6f       	ori	r24, 0xF0	; 240
 1d0:	81 bb       	out	0x11, r24	; 17
 1d2:	ac 9a       	sbi	0x15, 4	; 21
 1d4:	a4 9a       	sbi	0x14, 4	; 20
 1d6:	83 b7       	in	r24, 0x33	; 51
 1d8:	88 60       	ori	r24, 0x08	; 8
 1da:	83 bf       	out	0x33, r24	; 51
 1dc:	83 b7       	in	r24, 0x33	; 51
 1de:	85 60       	ori	r24, 0x05	; 5
 1e0:	83 bf       	out	0x33, r24	; 51
 1e2:	83 e1       	ldi	r24, 0x13	; 19
 1e4:	8c bf       	out	0x3c, r24	; 60
 1e6:	89 b7       	in	r24, 0x39	; 57
 1e8:	82 60       	ori	r24, 0x02	; 2
 1ea:	89 bf       	out	0x39, r24	; 57
 1ec:	08 95       	ret

000001ee <disp_null>:
 1ee:	1b ba       	out	0x1b, r1	; 27
 1f0:	85 b3       	in	r24, 0x15	; 21
 1f2:	83 7f       	andi	r24, 0xF3	; 243
 1f4:	85 bb       	out	0x15, r24	; 21
 1f6:	08 95       	ret

000001f8 <disp>:
 1f8:	cf 93       	push	r28
 1fa:	df 93       	push	r29
 1fc:	1f 92       	push	r1
 1fe:	cd b7       	in	r28, 0x3d	; 61
 200:	de b7       	in	r29, 0x3e	; 62
 202:	89 83       	std	Y+1, r24	; 0x01
 204:	0e 94 f7 00 	call	0x1ee	; 0x1ee <disp_null>
 208:	89 81       	ldd	r24, Y+1	; 0x01
 20a:	84 30       	cpi	r24, 0x04	; 4
 20c:	e1 f0       	breq	.+56     	; 0x246 <disp+0x4e>
 20e:	40 f4       	brcc	.+16     	; 0x220 <disp+0x28>
 210:	81 30       	cpi	r24, 0x01	; 1
 212:	99 f0       	breq	.+38     	; 0x23a <disp+0x42>
 214:	20 f1       	brcs	.+72     	; 0x25e <disp+0x66>
 216:	82 30       	cpi	r24, 0x02	; 2
 218:	91 f0       	breq	.+36     	; 0x23e <disp+0x46>
 21a:	83 30       	cpi	r24, 0x03	; 3
 21c:	01 f5       	brne	.+64     	; 0x25e <disp+0x66>
 21e:	11 c0       	rjmp	.+34     	; 0x242 <disp+0x4a>
 220:	87 30       	cpi	r24, 0x07	; 7
 222:	b9 f0       	breq	.+46     	; 0x252 <disp+0x5a>
 224:	28 f4       	brcc	.+10     	; 0x230 <disp+0x38>
 226:	85 30       	cpi	r24, 0x05	; 5
 228:	81 f0       	breq	.+32     	; 0x24a <disp+0x52>
 22a:	86 30       	cpi	r24, 0x06	; 6
 22c:	c1 f4       	brne	.+48     	; 0x25e <disp+0x66>
 22e:	0f c0       	rjmp	.+30     	; 0x24e <disp+0x56>
 230:	88 30       	cpi	r24, 0x08	; 8
 232:	89 f0       	breq	.+34     	; 0x256 <disp+0x5e>
 234:	89 30       	cpi	r24, 0x09	; 9
 236:	99 f4       	brne	.+38     	; 0x25e <disp+0x66>
 238:	10 c0       	rjmp	.+32     	; 0x25a <disp+0x62>
 23a:	d9 9a       	sbi	0x1b, 1	; 27
 23c:	11 c0       	rjmp	.+34     	; 0x260 <disp+0x68>
 23e:	da 9a       	sbi	0x1b, 2	; 27
 240:	0f c0       	rjmp	.+30     	; 0x260 <disp+0x68>
 242:	db 9a       	sbi	0x1b, 3	; 27
 244:	0d c0       	rjmp	.+26     	; 0x260 <disp+0x68>
 246:	dc 9a       	sbi	0x1b, 4	; 27
 248:	0b c0       	rjmp	.+22     	; 0x260 <disp+0x68>
 24a:	dd 9a       	sbi	0x1b, 5	; 27
 24c:	09 c0       	rjmp	.+18     	; 0x260 <disp+0x68>
 24e:	de 9a       	sbi	0x1b, 6	; 27
 250:	07 c0       	rjmp	.+14     	; 0x260 <disp+0x68>
 252:	df 9a       	sbi	0x1b, 7	; 27
 254:	05 c0       	rjmp	.+10     	; 0x260 <disp+0x68>
 256:	aa 9a       	sbi	0x15, 2	; 21
 258:	03 c0       	rjmp	.+6      	; 0x260 <disp+0x68>
 25a:	ab 9a       	sbi	0x15, 3	; 21
 25c:	01 c0       	rjmp	.+2      	; 0x260 <disp+0x68>
 25e:	d8 9a       	sbi	0x1b, 0	; 27
 260:	0f 90       	pop	r0
 262:	df 91       	pop	r29
 264:	cf 91       	pop	r28
 266:	08 95       	ret

00000268 <__vector_19>:
 268:	1f 92       	push	r1
 26a:	0f 92       	push	r0
 26c:	0f b6       	in	r0, 0x3f	; 63
 26e:	0f 92       	push	r0
 270:	11 24       	eor	r1, r1
 272:	2f 93       	push	r18
 274:	3f 93       	push	r19
 276:	4f 93       	push	r20
 278:	5f 93       	push	r21
 27a:	6f 93       	push	r22
 27c:	7f 93       	push	r23
 27e:	8f 93       	push	r24
 280:	9f 93       	push	r25
 282:	af 93       	push	r26
 284:	bf 93       	push	r27
 286:	cf 93       	push	r28
 288:	ef 93       	push	r30
 28a:	ff 93       	push	r31
 28c:	80 91 60 00 	lds	r24, 0x0060
 290:	80 38       	cpi	r24, 0x80	; 128
 292:	41 f4       	brne	.+16     	; 0x2a4 <__vector_19+0x3c>
 294:	80 91 6f 00 	lds	r24, 0x006F
 298:	0e 94 fc 00 	call	0x1f8	; 0x1f8 <disp>
 29c:	82 b3       	in	r24, 0x12	; 18
 29e:	8f 70       	andi	r24, 0x0F	; 15
 2a0:	80 68       	ori	r24, 0x80	; 128
 2a2:	82 bb       	out	0x12, r24	; 18
 2a4:	80 91 60 00 	lds	r24, 0x0060
 2a8:	80 34       	cpi	r24, 0x40	; 64
 2aa:	19 f4       	brne	.+6      	; 0x2b2 <__vector_19+0x4a>
 2ac:	0e 94 f7 00 	call	0x1ee	; 0x1ee <disp_null>
 2b0:	0a c0       	rjmp	.+20     	; 0x2c6 <__vector_19+0x5e>
 2b2:	80 32       	cpi	r24, 0x20	; 32
 2b4:	41 f4       	brne	.+16     	; 0x2c6 <__vector_19+0x5e>
 2b6:	80 91 6d 00 	lds	r24, 0x006D
 2ba:	0e 94 fc 00 	call	0x1f8	; 0x1f8 <disp>
 2be:	82 b3       	in	r24, 0x12	; 18
 2c0:	8f 70       	andi	r24, 0x0F	; 15
 2c2:	80 64       	ori	r24, 0x40	; 64
 2c4:	82 bb       	out	0x12, r24	; 18
 2c6:	80 91 60 00 	lds	r24, 0x0060
 2ca:	80 31       	cpi	r24, 0x10	; 16
 2cc:	19 f4       	brne	.+6      	; 0x2d4 <__vector_19+0x6c>
 2ce:	0e 94 f7 00 	call	0x1ee	; 0x1ee <disp_null>
 2d2:	0a c0       	rjmp	.+20     	; 0x2e8 <__vector_19+0x80>
 2d4:	88 30       	cpi	r24, 0x08	; 8
 2d6:	41 f4       	brne	.+16     	; 0x2e8 <__vector_19+0x80>
 2d8:	80 91 6e 00 	lds	r24, 0x006E
 2dc:	0e 94 fc 00 	call	0x1f8	; 0x1f8 <disp>
 2e0:	82 b3       	in	r24, 0x12	; 18
 2e2:	8f 70       	andi	r24, 0x0F	; 15
 2e4:	80 62       	ori	r24, 0x20	; 32
 2e6:	82 bb       	out	0x12, r24	; 18
 2e8:	80 91 60 00 	lds	r24, 0x0060
 2ec:	84 30       	cpi	r24, 0x04	; 4
 2ee:	19 f4       	brne	.+6      	; 0x2f6 <__vector_19+0x8e>
 2f0:	0e 94 f7 00 	call	0x1ee	; 0x1ee <disp_null>
 2f4:	0a c0       	rjmp	.+20     	; 0x30a <__vector_19+0xa2>
 2f6:	82 30       	cpi	r24, 0x02	; 2
 2f8:	41 f4       	brne	.+16     	; 0x30a <__vector_19+0xa2>
 2fa:	80 91 6c 00 	lds	r24, 0x006C
 2fe:	0e 94 fc 00 	call	0x1f8	; 0x1f8 <disp>
 302:	82 b3       	in	r24, 0x12	; 18
 304:	8f 70       	andi	r24, 0x0F	; 15
 306:	80 61       	ori	r24, 0x10	; 16
 308:	82 bb       	out	0x12, r24	; 18
 30a:	c0 91 60 00 	lds	r28, 0x0060
 30e:	c1 30       	cpi	r28, 0x01	; 1
 310:	11 f4       	brne	.+4      	; 0x316 <__vector_19+0xae>
 312:	0e 94 f7 00 	call	0x1ee	; 0x1ee <disp_null>
 316:	c6 95       	lsr	r28
 318:	19 f0       	breq	.+6      	; 0x320 <__vector_19+0xb8>
 31a:	c0 93 60 00 	sts	0x0060, r28
 31e:	03 c0       	rjmp	.+6      	; 0x326 <__vector_19+0xbe>
 320:	80 e8       	ldi	r24, 0x80	; 128
 322:	80 93 60 00 	sts	0x0060, r24
 326:	ff 91       	pop	r31
 328:	ef 91       	pop	r30
 32a:	cf 91       	pop	r28
 32c:	bf 91       	pop	r27
 32e:	af 91       	pop	r26
 330:	9f 91       	pop	r25
 332:	8f 91       	pop	r24
 334:	7f 91       	pop	r23
 336:	6f 91       	pop	r22
 338:	5f 91       	pop	r21
 33a:	4f 91       	pop	r20
 33c:	3f 91       	pop	r19
 33e:	2f 91       	pop	r18
 340:	0f 90       	pop	r0
 342:	0f be       	out	0x3f, r0	; 63
 344:	0f 90       	pop	r0
 346:	1f 90       	pop	r1
 348:	18 95       	reti

0000034a <i2cSetBitrate>:
 34a:	bc 01       	movw	r22, r24
 34c:	80 e4       	ldi	r24, 0x40	; 64
 34e:	9f e1       	ldi	r25, 0x1F	; 31
 350:	0e 94 6c 03 	call	0x6d8	; 0x6d8 <__udivmodhi4>
 354:	86 2f       	mov	r24, r22
 356:	60 31       	cpi	r22, 0x10	; 16
 358:	48 f0       	brcs	.+18     	; 0x36c <i2cSetBitrate+0x22>
 35a:	77 27       	eor	r23, r23
 35c:	cb 01       	movw	r24, r22
 35e:	40 97       	sbiw	r24, 0x10	; 16
 360:	97 ff       	sbrs	r25, 7
 362:	02 c0       	rjmp	.+4      	; 0x368 <i2cSetBitrate+0x1e>
 364:	cb 01       	movw	r24, r22
 366:	0f 97       	sbiw	r24, 0x0f	; 15
 368:	95 95       	asr	r25
 36a:	87 95       	ror	r24
 36c:	80 b9       	out	0x00, r24	; 0
 36e:	08 95       	ret

00000370 <TWI_start>:
 370:	84 ea       	ldi	r24, 0xA4	; 164
 372:	86 bf       	out	0x36, r24	; 54
 374:	06 b6       	in	r0, 0x36	; 54
 376:	07 fe       	sbrs	r0, 7
 378:	fd cf       	rjmp	.-6      	; 0x374 <TWI_start+0x4>
 37a:	08 95       	ret

0000037c <TWI_stop>:
 37c:	84 e9       	ldi	r24, 0x94	; 148
 37e:	86 bf       	out	0x36, r24	; 54
 380:	06 b6       	in	r0, 0x36	; 54
 382:	04 fc       	sbrc	r0, 4
 384:	fd cf       	rjmp	.-6      	; 0x380 <TWI_stop+0x4>
 386:	08 95       	ret

00000388 <TWI_write>:
 388:	83 b9       	out	0x03, r24	; 3
 38a:	84 e8       	ldi	r24, 0x84	; 132
 38c:	86 bf       	out	0x36, r24	; 54
 38e:	06 b6       	in	r0, 0x36	; 54
 390:	07 fe       	sbrs	r0, 7
 392:	fd cf       	rjmp	.-6      	; 0x38e <TWI_write+0x6>
 394:	08 95       	ret

00000396 <TWI_read>:
 396:	20 e4       	ldi	r18, 0x40	; 64
 398:	82 9f       	mul	r24, r18
 39a:	c0 01       	movw	r24, r0
 39c:	11 24       	eor	r1, r1
 39e:	84 68       	ori	r24, 0x84	; 132
 3a0:	9f 6f       	ori	r25, 0xFF	; 255
 3a2:	86 bf       	out	0x36, r24	; 54
 3a4:	06 b6       	in	r0, 0x36	; 54
 3a6:	07 fe       	sbrs	r0, 7
 3a8:	fd cf       	rjmp	.-6      	; 0x3a4 <TWI_read+0xe>
 3aa:	83 b1       	in	r24, 0x03	; 3
 3ac:	08 95       	ret

000003ae <TWI_write_buf>:
 3ae:	ef 92       	push	r14
 3b0:	ff 92       	push	r15
 3b2:	1f 93       	push	r17
 3b4:	cf 93       	push	r28
 3b6:	df 93       	push	r29
 3b8:	00 d0       	rcall	.+0      	; 0x3ba <TWI_write_buf+0xc>
 3ba:	00 d0       	rcall	.+0      	; 0x3bc <TWI_write_buf+0xe>
 3bc:	cd b7       	in	r28, 0x3d	; 61
 3be:	de b7       	in	r29, 0x3e	; 62
 3c0:	14 2f       	mov	r17, r20
 3c2:	2b 83       	std	Y+3, r18	; 0x03
 3c4:	3c 83       	std	Y+4, r19	; 0x04
 3c6:	6a 83       	std	Y+2, r22	; 0x02
 3c8:	89 83       	std	Y+1, r24	; 0x01
 3ca:	0e 94 b8 01 	call	0x370	; 0x370 <TWI_start>
 3ce:	89 81       	ldd	r24, Y+1	; 0x01
 3d0:	0e 94 c4 01 	call	0x388	; 0x388 <TWI_write>
 3d4:	6a 81       	ldd	r22, Y+2	; 0x02
 3d6:	86 2f       	mov	r24, r22
 3d8:	0e 94 c4 01 	call	0x388	; 0x388 <TWI_write>
 3dc:	2b 81       	ldd	r18, Y+3	; 0x03
 3de:	e2 2e       	mov	r14, r18
 3e0:	3c 81       	ldd	r19, Y+4	; 0x04
 3e2:	f3 2e       	mov	r15, r19
 3e4:	12 0f       	add	r17, r18
 3e6:	05 c0       	rjmp	.+10     	; 0x3f2 <TWI_write_buf+0x44>
 3e8:	f7 01       	movw	r30, r14
 3ea:	81 91       	ld	r24, Z+
 3ec:	7f 01       	movw	r14, r30
 3ee:	0e 94 c4 01 	call	0x388	; 0x388 <TWI_write>
 3f2:	1e 11       	cpse	r17, r14
 3f4:	f9 cf       	rjmp	.-14     	; 0x3e8 <TWI_write_buf+0x3a>
 3f6:	0f 90       	pop	r0
 3f8:	0f 90       	pop	r0
 3fa:	0f 90       	pop	r0
 3fc:	0f 90       	pop	r0
 3fe:	df 91       	pop	r29
 400:	cf 91       	pop	r28
 402:	1f 91       	pop	r17
 404:	ff 90       	pop	r15
 406:	ef 90       	pop	r14
 408:	0c 94 be 01 	jmp	0x37c	; 0x37c <TWI_stop>

0000040c <TWI_read_buf>:
 40c:	ef 92       	push	r14
 40e:	ff 92       	push	r15
 410:	0f 93       	push	r16
 412:	1f 93       	push	r17
 414:	cf 93       	push	r28
 416:	df 93       	push	r29
 418:	1f 92       	push	r1
 41a:	cd b7       	in	r28, 0x3d	; 61
 41c:	de b7       	in	r29, 0x3e	; 62
 41e:	08 2f       	mov	r16, r24
 420:	14 2f       	mov	r17, r20
 422:	79 01       	movw	r14, r18
 424:	69 83       	std	Y+1, r22	; 0x01
 426:	0e 94 b8 01 	call	0x370	; 0x370 <TWI_start>
 42a:	80 2f       	mov	r24, r16
 42c:	0e 94 c4 01 	call	0x388	; 0x388 <TWI_write>
 430:	69 81       	ldd	r22, Y+1	; 0x01
 432:	86 2f       	mov	r24, r22
 434:	0e 94 c4 01 	call	0x388	; 0x388 <TWI_write>
 438:	0e 94 b8 01 	call	0x370	; 0x370 <TWI_start>
 43c:	80 2f       	mov	r24, r16
 43e:	8f 5f       	subi	r24, 0xFF	; 255
 440:	0e 94 c4 01 	call	0x388	; 0x388 <TWI_write>
 444:	09 c0       	rjmp	.+18     	; 0x458 <TWI_read_buf+0x4c>
 446:	81 e0       	ldi	r24, 0x01	; 1
 448:	11 11       	cpse	r17, r1
 44a:	01 c0       	rjmp	.+2      	; 0x44e <TWI_read_buf+0x42>
 44c:	80 e0       	ldi	r24, 0x00	; 0
 44e:	0e 94 cb 01 	call	0x396	; 0x396 <TWI_read>
 452:	f7 01       	movw	r30, r14
 454:	81 93       	st	Z+, r24
 456:	7f 01       	movw	r14, r30
 458:	11 50       	subi	r17, 0x01	; 1
 45a:	a8 f7       	brcc	.-22     	; 0x446 <TWI_read_buf+0x3a>
 45c:	0f 90       	pop	r0
 45e:	df 91       	pop	r29
 460:	cf 91       	pop	r28
 462:	1f 91       	pop	r17
 464:	0f 91       	pop	r16
 466:	ff 90       	pop	r15
 468:	ef 90       	pop	r14
 46a:	0c 94 be 01 	jmp	0x37c	; 0x37c <TWI_stop>

0000046e <program_timer_init>:
 46e:	85 b5       	in	r24, 0x25	; 37
 470:	88 60       	ori	r24, 0x08	; 8
 472:	85 bd       	out	0x25, r24	; 37
 474:	85 b5       	in	r24, 0x25	; 37
 476:	87 60       	ori	r24, 0x07	; 7
 478:	85 bd       	out	0x25, r24	; 37
 47a:	8e e4       	ldi	r24, 0x4E	; 78
 47c:	83 bd       	out	0x23, r24	; 35
 47e:	89 b7       	in	r24, 0x39	; 57
 480:	80 68       	ori	r24, 0x80	; 128
 482:	89 bf       	out	0x39, r24	; 57
 484:	08 95       	ret

00000486 <SuperDebounce>:
 486:	ef 92       	push	r14
 488:	ff 92       	push	r15
 48a:	0f 93       	push	r16
 48c:	1f 93       	push	r17
 48e:	cf 93       	push	r28
 490:	70 91 62 00 	lds	r23, 0x0062
 494:	77 23       	and	r23, r23
 496:	11 f0       	breq	.+4      	; 0x49c <SuperDebounce+0x16>
 498:	76 13       	cpse	r23, r22
 49a:	75 c0       	rjmp	.+234    	; 0x586 <SuperDebounce+0x100>
 49c:	fc 01       	movw	r30, r24
 49e:	90 81       	ld	r25, Z
 4a0:	96 23       	and	r25, r22
 4a2:	c1 e0       	ldi	r28, 0x01	; 1
 4a4:	80 91 63 00 	lds	r24, 0x0063
 4a8:	99 23       	and	r25, r25
 4aa:	11 f0       	breq	.+4      	; 0x4b0 <SuperDebounce+0x2a>
 4ac:	c0 e0       	ldi	r28, 0x00	; 0
 4ae:	0b c0       	rjmp	.+22     	; 0x4c6 <SuperDebounce+0x40>
 4b0:	81 11       	cpse	r24, r1
 4b2:	09 c0       	rjmp	.+18     	; 0x4c6 <SuperDebounce+0x40>
 4b4:	c0 93 63 00 	sts	0x0063, r28
 4b8:	85 e0       	ldi	r24, 0x05	; 5
 4ba:	90 e0       	ldi	r25, 0x00	; 0
 4bc:	90 93 71 00 	sts	0x0071, r25
 4c0:	80 93 70 00 	sts	0x0070, r24
 4c4:	60 c0       	rjmp	.+192    	; 0x586 <SuperDebounce+0x100>
 4c6:	88 23       	and	r24, r24
 4c8:	09 f4       	brne	.+2      	; 0x4cc <SuperDebounce+0x46>
 4ca:	5d c0       	rjmp	.+186    	; 0x586 <SuperDebounce+0x100>
 4cc:	cc 23       	and	r28, r28
 4ce:	a9 f0       	breq	.+42     	; 0x4fa <SuperDebounce+0x74>
 4d0:	81 30       	cpi	r24, 0x01	; 1
 4d2:	e9 f4       	brne	.+58     	; 0x50e <SuperDebounce+0x88>
 4d4:	80 91 70 00 	lds	r24, 0x0070
 4d8:	90 91 71 00 	lds	r25, 0x0071
 4dc:	89 2b       	or	r24, r25
 4de:	09 f0       	breq	.+2      	; 0x4e2 <SuperDebounce+0x5c>
 4e0:	48 c0       	rjmp	.+144    	; 0x572 <SuperDebounce+0xec>
 4e2:	82 e0       	ldi	r24, 0x02	; 2
 4e4:	80 93 63 00 	sts	0x0063, r24
 4e8:	83 e0       	ldi	r24, 0x03	; 3
 4ea:	90 e0       	ldi	r25, 0x00	; 0
 4ec:	90 93 71 00 	sts	0x0071, r25
 4f0:	80 93 70 00 	sts	0x0070, r24
 4f4:	60 93 62 00 	sts	0x0062, r22
 4f8:	46 c0       	rjmp	.+140    	; 0x586 <SuperDebounce+0x100>
 4fa:	82 30       	cpi	r24, 0x02	; 2
 4fc:	d0 f1       	brcs	.+116    	; 0x572 <SuperDebounce+0xec>
 4fe:	84 30       	cpi	r24, 0x04	; 4
 500:	c0 f5       	brcc	.+112    	; 0x572 <SuperDebounce+0xec>
 502:	01 15       	cp	r16, r1
 504:	11 05       	cpc	r17, r1
 506:	d9 f1       	breq	.+118    	; 0x57e <SuperDebounce+0xf8>
 508:	f8 01       	movw	r30, r16
 50a:	09 95       	icall
 50c:	38 c0       	rjmp	.+112    	; 0x57e <SuperDebounce+0xf8>
 50e:	82 30       	cpi	r24, 0x02	; 2
 510:	99 f4       	brne	.+38     	; 0x538 <SuperDebounce+0xb2>
 512:	80 91 70 00 	lds	r24, 0x0070
 516:	90 91 71 00 	lds	r25, 0x0071
 51a:	89 2b       	or	r24, r25
 51c:	51 f5       	brne	.+84     	; 0x572 <SuperDebounce+0xec>
 51e:	21 15       	cp	r18, r1
 520:	31 05       	cpc	r19, r1
 522:	11 f4       	brne	.+4      	; 0x528 <SuperDebounce+0xa2>
 524:	26 e9       	ldi	r18, 0x96	; 150
 526:	30 e0       	ldi	r19, 0x00	; 0
 528:	83 e0       	ldi	r24, 0x03	; 3
 52a:	80 93 63 00 	sts	0x0063, r24
 52e:	30 93 71 00 	sts	0x0071, r19
 532:	20 93 70 00 	sts	0x0070, r18
 536:	1d c0       	rjmp	.+58     	; 0x572 <SuperDebounce+0xec>
 538:	83 30       	cpi	r24, 0x03	; 3
 53a:	51 f4       	brne	.+20     	; 0x550 <SuperDebounce+0xca>
 53c:	80 91 70 00 	lds	r24, 0x0070
 540:	90 91 71 00 	lds	r25, 0x0071
 544:	89 2b       	or	r24, r25
 546:	a9 f4       	brne	.+42     	; 0x572 <SuperDebounce+0xec>
 548:	84 e0       	ldi	r24, 0x04	; 4
 54a:	80 93 63 00 	sts	0x0063, r24
 54e:	11 c0       	rjmp	.+34     	; 0x572 <SuperDebounce+0xec>
 550:	84 30       	cpi	r24, 0x04	; 4
 552:	79 f4       	brne	.+30     	; 0x572 <SuperDebounce+0xec>
 554:	80 91 70 00 	lds	r24, 0x0070
 558:	90 91 71 00 	lds	r25, 0x0071
 55c:	89 2b       	or	r24, r25
 55e:	49 f4       	brne	.+18     	; 0x572 <SuperDebounce+0xec>
 560:	50 93 71 00 	sts	0x0071, r21
 564:	40 93 70 00 	sts	0x0070, r20
 568:	e1 14       	cp	r14, r1
 56a:	f1 04       	cpc	r15, r1
 56c:	11 f0       	breq	.+4      	; 0x572 <SuperDebounce+0xec>
 56e:	f7 01       	movw	r30, r14
 570:	09 95       	icall
 572:	80 91 63 00 	lds	r24, 0x0063
 576:	83 30       	cpi	r24, 0x03	; 3
 578:	30 f0       	brcs	.+12     	; 0x586 <SuperDebounce+0x100>
 57a:	c1 11       	cpse	r28, r1
 57c:	04 c0       	rjmp	.+8      	; 0x586 <SuperDebounce+0x100>
 57e:	10 92 63 00 	sts	0x0063, r1
 582:	10 92 62 00 	sts	0x0062, r1
 586:	cf 91       	pop	r28
 588:	1f 91       	pop	r17
 58a:	0f 91       	pop	r16
 58c:	ff 90       	pop	r15
 58e:	ef 90       	pop	r14
 590:	08 95       	ret

00000592 <__vector_3>:
 592:	1f 92       	push	r1
 594:	0f 92       	push	r0
 596:	0f b6       	in	r0, 0x3f	; 63
 598:	0f 92       	push	r0
 59a:	11 24       	eor	r1, r1
 59c:	8f 93       	push	r24
 59e:	9f 93       	push	r25
 5a0:	80 91 70 00 	lds	r24, 0x0070
 5a4:	90 91 71 00 	lds	r25, 0x0071
 5a8:	00 97       	sbiw	r24, 0x00	; 0
 5aa:	29 f0       	breq	.+10     	; 0x5b6 <__vector_3+0x24>
 5ac:	01 97       	sbiw	r24, 0x01	; 1
 5ae:	90 93 71 00 	sts	0x0071, r25
 5b2:	80 93 70 00 	sts	0x0070, r24
 5b6:	80 91 74 00 	lds	r24, 0x0074
 5ba:	90 91 75 00 	lds	r25, 0x0075
 5be:	00 97       	sbiw	r24, 0x00	; 0
 5c0:	29 f0       	breq	.+10     	; 0x5cc <__vector_3+0x3a>
 5c2:	01 97       	sbiw	r24, 0x01	; 1
 5c4:	90 93 75 00 	sts	0x0075, r25
 5c8:	80 93 74 00 	sts	0x0074, r24
 5cc:	80 91 72 00 	lds	r24, 0x0072
 5d0:	90 91 73 00 	lds	r25, 0x0073
 5d4:	00 97       	sbiw	r24, 0x00	; 0
 5d6:	29 f0       	breq	.+10     	; 0x5e2 <__vector_3+0x50>
 5d8:	01 97       	sbiw	r24, 0x01	; 1
 5da:	90 93 73 00 	sts	0x0073, r25
 5de:	80 93 72 00 	sts	0x0072, r24
 5e2:	9f 91       	pop	r25
 5e4:	8f 91       	pop	r24
 5e6:	0f 90       	pop	r0
 5e8:	0f be       	out	0x3f, r0	; 63
 5ea:	0f 90       	pop	r0
 5ec:	1f 90       	pop	r1
 5ee:	18 95       	reti

000005f0 <main>:
 5f0:	0e 94 49 00 	call	0x92	; 0x92 <rtc_isr_init>
 5f4:	0e 94 de 00 	call	0x1bc	; 0x1bc <lamp_disp_init>
 5f8:	0e 94 d7 00 	call	0x1ae	; 0x1ae <sw_init>
 5fc:	84 e6       	ldi	r24, 0x64	; 100
 5fe:	90 e0       	ldi	r25, 0x00	; 0
 600:	0e 94 a5 01 	call	0x34a	; 0x34a <i2cSetBitrate>
 604:	0e 94 37 02 	call	0x46e	; 0x46e <program_timer_init>
 608:	78 94       	sei
 60a:	ca e0       	ldi	r28, 0x0A	; 10
 60c:	d0 e1       	ldi	r29, 0x10	; 16
 60e:	20 91 64 00 	lds	r18, 0x0064
 612:	2a 30       	cpi	r18, 0x0A	; 10
 614:	28 f0       	brcs	.+10     	; 0x620 <main+0x30>
 616:	82 2f       	mov	r24, r18
 618:	6c 2f       	mov	r22, r28
 61a:	0e 94 60 03 	call	0x6c0	; 0x6c0 <__udivmodqi4>
 61e:	01 c0       	rjmp	.+2      	; 0x622 <main+0x32>
 620:	80 e0       	ldi	r24, 0x00	; 0
 622:	80 93 6f 00 	sts	0x006F, r24
 626:	82 2f       	mov	r24, r18
 628:	6c 2f       	mov	r22, r28
 62a:	0e 94 60 03 	call	0x6c0	; 0x6c0 <__udivmodqi4>
 62e:	90 93 6d 00 	sts	0x006D, r25
 632:	80 91 69 00 	lds	r24, 0x0069
 636:	0e 94 60 03 	call	0x6c0	; 0x6c0 <__udivmodqi4>
 63a:	80 93 6e 00 	sts	0x006E, r24
 63e:	90 93 6c 00 	sts	0x006C, r25
 642:	83 e7       	ldi	r24, 0x73	; 115
 644:	e8 2e       	mov	r14, r24
 646:	80 e0       	ldi	r24, 0x00	; 0
 648:	f8 2e       	mov	r15, r24
 64a:	87 01       	movw	r16, r14
 64c:	24 e6       	ldi	r18, 0x64	; 100
 64e:	30 e0       	ldi	r19, 0x00	; 0
 650:	4a e0       	ldi	r20, 0x0A	; 10
 652:	50 e0       	ldi	r21, 0x00	; 0
 654:	60 e4       	ldi	r22, 0x40	; 64
 656:	83 e3       	ldi	r24, 0x33	; 51
 658:	90 e0       	ldi	r25, 0x00	; 0
 65a:	0e 94 43 02 	call	0x486	; 0x486 <SuperDebounce>
 65e:	95 ea       	ldi	r25, 0xA5	; 165
 660:	e9 2e       	mov	r14, r25
 662:	90 e0       	ldi	r25, 0x00	; 0
 664:	f9 2e       	mov	r15, r25
 666:	87 01       	movw	r16, r14
 668:	24 e6       	ldi	r18, 0x64	; 100
 66a:	30 e0       	ldi	r19, 0x00	; 0
 66c:	4a e0       	ldi	r20, 0x0A	; 10
 66e:	50 e0       	ldi	r21, 0x00	; 0
 670:	60 e8       	ldi	r22, 0x80	; 128
 672:	83 e3       	ldi	r24, 0x33	; 51
 674:	90 e0       	ldi	r25, 0x00	; 0
 676:	0e 94 43 02 	call	0x486	; 0x486 <SuperDebounce>
 67a:	80 91 6b 00 	lds	r24, 0x006B
 67e:	88 23       	and	r24, r24
 680:	31 f2       	breq	.-116    	; 0x60e <main+0x1e>
 682:	25 e6       	ldi	r18, 0x65	; 101
 684:	30 e0       	ldi	r19, 0x00	; 0
 686:	44 e0       	ldi	r20, 0x04	; 4
 688:	61 e0       	ldi	r22, 0x01	; 1
 68a:	82 ea       	ldi	r24, 0xA2	; 162
 68c:	0e 94 06 02 	call	0x40c	; 0x40c <TWI_read_buf>
 690:	80 91 66 00 	lds	r24, 0x0066
 694:	0e 94 6a 00 	call	0xd4	; 0xd4 <bcd2dec>
 698:	80 93 6a 00 	sts	0x006A, r24
 69c:	80 91 67 00 	lds	r24, 0x0067
 6a0:	0e 94 6a 00 	call	0xd4	; 0xd4 <bcd2dec>
 6a4:	80 93 69 00 	sts	0x0069, r24
 6a8:	80 91 68 00 	lds	r24, 0x0068
 6ac:	0e 94 6a 00 	call	0xd4	; 0xd4 <bcd2dec>
 6b0:	80 93 64 00 	sts	0x0064, r24
 6b4:	85 b3       	in	r24, 0x15	; 21
 6b6:	8d 27       	eor	r24, r29
 6b8:	85 bb       	out	0x15, r24	; 21
 6ba:	10 92 6b 00 	sts	0x006B, r1
 6be:	a7 cf       	rjmp	.-178    	; 0x60e <main+0x1e>

000006c0 <__udivmodqi4>:
 6c0:	99 1b       	sub	r25, r25
 6c2:	79 e0       	ldi	r23, 0x09	; 9
 6c4:	04 c0       	rjmp	.+8      	; 0x6ce <__udivmodqi4_ep>

000006c6 <__udivmodqi4_loop>:
 6c6:	99 1f       	adc	r25, r25
 6c8:	96 17       	cp	r25, r22
 6ca:	08 f0       	brcs	.+2      	; 0x6ce <__udivmodqi4_ep>
 6cc:	96 1b       	sub	r25, r22

000006ce <__udivmodqi4_ep>:
 6ce:	88 1f       	adc	r24, r24
 6d0:	7a 95       	dec	r23
 6d2:	c9 f7       	brne	.-14     	; 0x6c6 <__udivmodqi4_loop>
 6d4:	80 95       	com	r24
 6d6:	08 95       	ret

000006d8 <__udivmodhi4>:
 6d8:	aa 1b       	sub	r26, r26
 6da:	bb 1b       	sub	r27, r27
 6dc:	51 e1       	ldi	r21, 0x11	; 17
 6de:	07 c0       	rjmp	.+14     	; 0x6ee <__udivmodhi4_ep>

000006e0 <__udivmodhi4_loop>:
 6e0:	aa 1f       	adc	r26, r26
 6e2:	bb 1f       	adc	r27, r27
 6e4:	a6 17       	cp	r26, r22
 6e6:	b7 07       	cpc	r27, r23
 6e8:	10 f0       	brcs	.+4      	; 0x6ee <__udivmodhi4_ep>
 6ea:	a6 1b       	sub	r26, r22
 6ec:	b7 0b       	sbc	r27, r23

000006ee <__udivmodhi4_ep>:
 6ee:	88 1f       	adc	r24, r24
 6f0:	99 1f       	adc	r25, r25
 6f2:	5a 95       	dec	r21
 6f4:	a9 f7       	brne	.-22     	; 0x6e0 <__udivmodhi4_loop>
 6f6:	80 95       	com	r24
 6f8:	90 95       	com	r25
 6fa:	bc 01       	movw	r22, r24
 6fc:	cd 01       	movw	r24, r26
 6fe:	08 95       	ret

00000700 <_exit>:
 700:	f8 94       	cli

00000702 <__stop_program>:
 702:	ff cf       	rjmp	.-2      	; 0x702 <__stop_program>
