
40_RELAY_RX_ATmega88.elf:     file format elf32-avr

Sections:
Idx Name          Size      VMA       LMA       File off  Algn
  0 .data         00000000  00800100  000007fc  00000890  2**0
                  CONTENTS, ALLOC, LOAD, DATA
  1 .text         000007fc  00000000  00000000  00000094  2**1
                  CONTENTS, ALLOC, LOAD, READONLY, CODE
  2 .bss          0000003d  00800100  00800100  00000890  2**0
                  ALLOC
  3 .stab         000006cc  00000000  00000000  00000890  2**2
                  CONTENTS, READONLY, DEBUGGING
  4 .stabstr      00000097  00000000  00000000  00000f5c  2**0
                  CONTENTS, READONLY, DEBUGGING
  5 .comment      0000002f  00000000  00000000  00000ff3  2**0
                  CONTENTS, READONLY

Disassembly of section .text:

00000000 <__vectors>:
   0:	1f c0       	rjmp	.+62     	; 0x40 <__ctors_end>
   2:	ea c1       	rjmp	.+980    	; 0x3d8 <__vector_1>
   4:	2d c0       	rjmp	.+90     	; 0x60 <__bad_interrupt>
   6:	2c c0       	rjmp	.+88     	; 0x60 <__bad_interrupt>
   8:	2b c0       	rjmp	.+86     	; 0x60 <__bad_interrupt>
   a:	2a c0       	rjmp	.+84     	; 0x60 <__bad_interrupt>
   c:	29 c0       	rjmp	.+82     	; 0x60 <__bad_interrupt>
   e:	28 c0       	rjmp	.+80     	; 0x60 <__bad_interrupt>
  10:	27 c0       	rjmp	.+78     	; 0x60 <__bad_interrupt>
  12:	26 c0       	rjmp	.+76     	; 0x60 <__bad_interrupt>
  14:	25 c0       	rjmp	.+74     	; 0x60 <__bad_interrupt>
  16:	a0 c3       	rjmp	.+1856   	; 0x758 <__vector_11>
  18:	23 c0       	rjmp	.+70     	; 0x60 <__bad_interrupt>
  1a:	22 c0       	rjmp	.+68     	; 0x60 <__bad_interrupt>
  1c:	21 c0       	rjmp	.+66     	; 0x60 <__bad_interrupt>
  1e:	20 c0       	rjmp	.+64     	; 0x60 <__bad_interrupt>
  20:	1f c0       	rjmp	.+62     	; 0x60 <__bad_interrupt>
  22:	1e c0       	rjmp	.+60     	; 0x60 <__bad_interrupt>
  24:	1d c0       	rjmp	.+58     	; 0x60 <__bad_interrupt>
  26:	1c c0       	rjmp	.+56     	; 0x60 <__bad_interrupt>
  28:	1b c0       	rjmp	.+54     	; 0x60 <__bad_interrupt>
  2a:	1a c0       	rjmp	.+52     	; 0x60 <__bad_interrupt>
  2c:	19 c0       	rjmp	.+50     	; 0x60 <__bad_interrupt>
  2e:	18 c0       	rjmp	.+48     	; 0x60 <__bad_interrupt>
  30:	17 c0       	rjmp	.+46     	; 0x60 <__bad_interrupt>
  32:	16 c0       	rjmp	.+44     	; 0x60 <__bad_interrupt>

00000034 <__c.1872>:
  34:	41 54 4e 45 4c 00                                   ATNEL.

0000003a <__c.1874>:
  3a:	41 54 4e 45 4c 00                                   ATNEL.

00000040 <__ctors_end>:
  40:	11 24       	eor	r1, r1
  42:	1f be       	out	0x3f, r1	; 63
  44:	cf ef       	ldi	r28, 0xFF	; 255
  46:	d4 e0       	ldi	r29, 0x04	; 4
  48:	de bf       	out	0x3e, r29	; 62
  4a:	cd bf       	out	0x3d, r28	; 61

0000004c <__do_clear_bss>:
  4c:	21 e0       	ldi	r18, 0x01	; 1
  4e:	a0 e0       	ldi	r26, 0x00	; 0
  50:	b1 e0       	ldi	r27, 0x01	; 1
  52:	01 c0       	rjmp	.+2      	; 0x56 <.do_clear_bss_start>

00000054 <.do_clear_bss_loop>:
  54:	1d 92       	st	X+, r1

00000056 <.do_clear_bss_start>:
  56:	ad 33       	cpi	r26, 0x3D	; 61
  58:	b2 07       	cpc	r27, r18
  5a:	e1 f7       	brne	.-8      	; 0x54 <.do_clear_bss_loop>
  5c:	3d d3       	rcall	.+1658   	; 0x6d8 <main>
  5e:	cc c3       	rjmp	.+1944   	; 0x7f8 <_exit>

00000060 <__bad_interrupt>:
  60:	cf cf       	rjmp	.-98     	; 0x0 <__vectors>

00000062 <init_SPI>:
  62:	22 98       	cbi	0x04, 2	; 4
  64:	21 9a       	sbi	0x04, 1	; 4
  66:	22 9a       	sbi	0x04, 2	; 4
  68:	23 9a       	sbi	0x04, 3	; 4
  6a:	24 98       	cbi	0x04, 4	; 4
  6c:	25 9a       	sbi	0x04, 5	; 4
  6e:	2a 9a       	sbi	0x05, 2	; 5
  70:	29 98       	cbi	0x05, 1	; 5
  72:	2a 9a       	sbi	0x05, 2	; 5
  74:	2b 9a       	sbi	0x05, 3	; 5
  76:	2d 9a       	sbi	0x05, 5	; 5
  78:	8c b5       	in	r24, 0x2c	; 44
  7a:	82 65       	ori	r24, 0x52	; 82
  7c:	8c bd       	out	0x2c, r24	; 44
  7e:	8d b5       	in	r24, 0x2d	; 45
  80:	81 60       	ori	r24, 0x01	; 1
  82:	8d bd       	out	0x2d, r24	; 45
  84:	08 95       	ret

00000086 <SPI_WriteReadByte>:
  86:	8e bd       	out	0x2e, r24	; 46
  88:	0d b4       	in	r0, 0x2d	; 45
  8a:	07 fe       	sbrs	r0, 7
  8c:	fd cf       	rjmp	.-6      	; 0x88 <SPI_WriteReadByte+0x2>
  8e:	8e b5       	in	r24, 0x2e	; 46
  90:	08 95       	ret

00000092 <SPI_WriteByte>:
  92:	8e bd       	out	0x2e, r24	; 46
  94:	0d b4       	in	r0, 0x2d	; 45
  96:	07 fe       	sbrs	r0, 7
  98:	fd cf       	rjmp	.-6      	; 0x94 <SPI_WriteByte+0x2>
  9a:	08 95       	ret

0000009c <SPI_WriteReadDataBuffer>:
  9c:	ef 92       	push	r14
  9e:	ff 92       	push	r15
  a0:	0f 93       	push	r16
  a2:	1f 93       	push	r17
  a4:	cf 93       	push	r28
  a6:	df 93       	push	r29
  a8:	00 d0       	rcall	.+0      	; 0xaa <SPI_WriteReadDataBuffer+0xe>
  aa:	cd b7       	in	r28, 0x3d	; 61
  ac:	de b7       	in	r29, 0x3e	; 62
  ae:	8c 01       	movw	r16, r24
  b0:	7b 01       	movw	r14, r22
  b2:	0b c0       	rjmp	.+22     	; 0xca <SPI_WriteReadDataBuffer+0x2e>
  b4:	f7 01       	movw	r30, r14
  b6:	81 91       	ld	r24, Z+
  b8:	7f 01       	movw	r14, r30
  ba:	49 83       	std	Y+1, r20	; 0x01
  bc:	6a 83       	std	Y+2, r22	; 0x02
  be:	e3 df       	rcall	.-58     	; 0x86 <SPI_WriteReadByte>
  c0:	f8 01       	movw	r30, r16
  c2:	81 93       	st	Z+, r24
  c4:	8f 01       	movw	r16, r30
  c6:	6a 81       	ldd	r22, Y+2	; 0x02
  c8:	49 81       	ldd	r20, Y+1	; 0x01
  ca:	8e 2d       	mov	r24, r14
  cc:	86 1b       	sub	r24, r22
  ce:	84 17       	cp	r24, r20
  d0:	88 f3       	brcs	.-30     	; 0xb4 <SPI_WriteReadDataBuffer+0x18>
  d2:	0f 90       	pop	r0
  d4:	0f 90       	pop	r0
  d6:	df 91       	pop	r29
  d8:	cf 91       	pop	r28
  da:	1f 91       	pop	r17
  dc:	0f 91       	pop	r16
  de:	ff 90       	pop	r15
  e0:	ef 90       	pop	r14
  e2:	08 95       	ret

000000e4 <nRF_Read_One_Byte_From_Register>:
  e4:	2a 98       	cbi	0x05, 2	; 5
  e6:	8f 71       	andi	r24, 0x1F	; 31
  e8:	d4 df       	rcall	.-88     	; 0x92 <SPI_WriteByte>
  ea:	8f ef       	ldi	r24, 0xFF	; 255
  ec:	cc df       	rcall	.-104    	; 0x86 <SPI_WriteReadByte>
  ee:	2a 9a       	sbi	0x05, 2	; 5
  f0:	08 95       	ret

000000f2 <nRF_Config_Register>:
  f2:	cf 93       	push	r28
  f4:	df 93       	push	r29
  f6:	1f 92       	push	r1
  f8:	cd b7       	in	r28, 0x3d	; 61
  fa:	de b7       	in	r29, 0x3e	; 62
  fc:	2a 98       	cbi	0x05, 2	; 5
  fe:	8f 71       	andi	r24, 0x1F	; 31
 100:	80 62       	ori	r24, 0x20	; 32
 102:	69 83       	std	Y+1, r22	; 0x01
 104:	c6 df       	rcall	.-116    	; 0x92 <SPI_WriteByte>
 106:	69 81       	ldd	r22, Y+1	; 0x01
 108:	86 2f       	mov	r24, r22
 10a:	c3 df       	rcall	.-122    	; 0x92 <SPI_WriteByte>
 10c:	2a 9a       	sbi	0x05, 2	; 5
 10e:	0f 90       	pop	r0
 110:	df 91       	pop	r29
 112:	cf 91       	pop	r28
 114:	08 95       	ret

00000116 <nRF_Write_Register>:
 116:	0f 93       	push	r16
 118:	1f 93       	push	r17
 11a:	cf 93       	push	r28
 11c:	df 93       	push	r29
 11e:	1f 92       	push	r1
 120:	cd b7       	in	r28, 0x3d	; 61
 122:	de b7       	in	r29, 0x3e	; 62
 124:	8b 01       	movw	r16, r22
 126:	2a 98       	cbi	0x05, 2	; 5
 128:	8f 71       	andi	r24, 0x1F	; 31
 12a:	80 62       	ori	r24, 0x20	; 32
 12c:	49 83       	std	Y+1, r20	; 0x01
 12e:	b1 df       	rcall	.-158    	; 0x92 <SPI_WriteByte>
 130:	49 81       	ldd	r20, Y+1	; 0x01
 132:	b8 01       	movw	r22, r16
 134:	c8 01       	movw	r24, r16
 136:	b2 df       	rcall	.-156    	; 0x9c <SPI_WriteReadDataBuffer>
 138:	2a 9a       	sbi	0x05, 2	; 5
 13a:	0f 90       	pop	r0
 13c:	df 91       	pop	r29
 13e:	cf 91       	pop	r28
 140:	1f 91       	pop	r17
 142:	0f 91       	pop	r16
 144:	08 95       	ret

00000146 <nRF_SET_Transmitter_Adres>:
 146:	cf 93       	push	r28
 148:	df 93       	push	r29
 14a:	00 d0       	rcall	.+0      	; 0x14c <nRF_SET_Transmitter_Adres+0x6>
 14c:	00 d0       	rcall	.+0      	; 0x14e <nRF_SET_Transmitter_Adres+0x8>
 14e:	1f 92       	push	r1
 150:	cd b7       	in	r28, 0x3d	; 61
 152:	de b7       	in	r29, 0x3e	; 62
 154:	de 01       	movw	r26, r28
 156:	11 96       	adiw	r26, 0x01	; 1
 158:	9e 01       	movw	r18, r28
 15a:	2a 5f       	subi	r18, 0xFA	; 250
 15c:	3f 4f       	sbci	r19, 0xFF	; 255
 15e:	fc 01       	movw	r30, r24
 160:	01 96       	adiw	r24, 0x01	; 1
 162:	e4 91       	lpm	r30, Z
 164:	ed 93       	st	X+, r30
 166:	a2 17       	cp	r26, r18
 168:	b3 07       	cpc	r27, r19
 16a:	c9 f7       	brne	.-14     	; 0x15e <nRF_SET_Transmitter_Adres+0x18>
 16c:	45 e0       	ldi	r20, 0x05	; 5
 16e:	be 01       	movw	r22, r28
 170:	6f 5f       	subi	r22, 0xFF	; 255
 172:	7f 4f       	sbci	r23, 0xFF	; 255
 174:	80 e1       	ldi	r24, 0x10	; 16
 176:	cf df       	rcall	.-98     	; 0x116 <nRF_Write_Register>
 178:	0f 90       	pop	r0
 17a:	0f 90       	pop	r0
 17c:	0f 90       	pop	r0
 17e:	0f 90       	pop	r0
 180:	0f 90       	pop	r0
 182:	df 91       	pop	r29
 184:	cf 91       	pop	r28
 186:	08 95       	ret

00000188 <nRF_SET_Reciver_Addres>:
 188:	cf 93       	push	r28
 18a:	df 93       	push	r29
 18c:	00 d0       	rcall	.+0      	; 0x18e <nRF_SET_Reciver_Addres+0x6>
 18e:	00 d0       	rcall	.+0      	; 0x190 <nRF_SET_Reciver_Addres+0x8>
 190:	1f 92       	push	r1
 192:	cd b7       	in	r28, 0x3d	; 61
 194:	de b7       	in	r29, 0x3e	; 62
 196:	80 31       	cpi	r24, 0x10	; 16
 198:	28 f4       	brcc	.+10     	; 0x1a4 <nRF_SET_Reciver_Addres+0x1c>
 19a:	8a 30       	cpi	r24, 0x0A	; 10
 19c:	18 f0       	brcs	.+6      	; 0x1a4 <nRF_SET_Reciver_Addres+0x1c>
 19e:	8c 30       	cpi	r24, 0x0C	; 12
 1a0:	a8 f4       	brcc	.+42     	; 0x1cc <nRF_SET_Reciver_Addres+0x44>
 1a2:	01 c0       	rjmp	.+2      	; 0x1a6 <nRF_SET_Reciver_Addres+0x1e>
 1a4:	8a e0       	ldi	r24, 0x0A	; 10
 1a6:	de 01       	movw	r26, r28
 1a8:	11 96       	adiw	r26, 0x01	; 1
 1aa:	9e 01       	movw	r18, r28
 1ac:	2a 5f       	subi	r18, 0xFA	; 250
 1ae:	3f 4f       	sbci	r19, 0xFF	; 255
 1b0:	fb 01       	movw	r30, r22
 1b2:	6f 5f       	subi	r22, 0xFF	; 255
 1b4:	7f 4f       	sbci	r23, 0xFF	; 255
 1b6:	e4 91       	lpm	r30, Z
 1b8:	ed 93       	st	X+, r30
 1ba:	a2 17       	cp	r26, r18
 1bc:	b3 07       	cpc	r27, r19
 1be:	c1 f7       	brne	.-16     	; 0x1b0 <nRF_SET_Reciver_Addres+0x28>
 1c0:	45 e0       	ldi	r20, 0x05	; 5
 1c2:	be 01       	movw	r22, r28
 1c4:	6f 5f       	subi	r22, 0xFF	; 255
 1c6:	7f 4f       	sbci	r23, 0xFF	; 255
 1c8:	a6 df       	rcall	.-180    	; 0x116 <nRF_Write_Register>
 1ca:	04 c0       	rjmp	.+8      	; 0x1d4 <nRF_SET_Reciver_Addres+0x4c>
 1cc:	fb 01       	movw	r30, r22
 1ce:	64 91       	lpm	r22, Z
 1d0:	69 83       	std	Y+1, r22	; 0x01
 1d2:	8f df       	rcall	.-226    	; 0xf2 <nRF_Config_Register>
 1d4:	0f 90       	pop	r0
 1d6:	0f 90       	pop	r0
 1d8:	0f 90       	pop	r0
 1da:	0f 90       	pop	r0
 1dc:	0f 90       	pop	r0
 1de:	df 91       	pop	r29
 1e0:	cf 91       	pop	r28
 1e2:	08 95       	ret

000001e4 <nRF_Set_State_And_Width_Of_CRC>:
 1e4:	1f 93       	push	r17
 1e6:	cf 93       	push	r28
 1e8:	df 93       	push	r29
 1ea:	1f 92       	push	r1
 1ec:	cd b7       	in	r28, 0x3d	; 61
 1ee:	de b7       	in	r29, 0x3e	; 62
 1f0:	18 2f       	mov	r17, r24
 1f2:	80 e0       	ldi	r24, 0x00	; 0
 1f4:	69 83       	std	Y+1, r22	; 0x01
 1f6:	76 df       	rcall	.-276    	; 0xe4 <nRF_Read_One_Byte_From_Register>
 1f8:	69 81       	ldd	r22, Y+1	; 0x01
 1fa:	11 30       	cpi	r17, 0x01	; 1
 1fc:	09 f4       	brne	.+2      	; 0x200 <nRF_Set_State_And_Width_Of_CRC+0x1c>
 1fe:	04 c0       	rjmp	.+8      	; 0x208 <nRF_Set_State_And_Width_Of_CRC+0x24>
 200:	12 30       	cpi	r17, 0x02	; 2
 202:	11 f4       	brne	.+4      	; 0x208 <nRF_Set_State_And_Width_Of_CRC+0x24>
 204:	84 60       	ori	r24, 0x04	; 4
 206:	01 c0       	rjmp	.+2      	; 0x20a <nRF_Set_State_And_Width_Of_CRC+0x26>
 208:	8b 7f       	andi	r24, 0xFB	; 251
 20a:	61 30       	cpi	r22, 0x01	; 1
 20c:	11 f4       	brne	.+4      	; 0x212 <nRF_Set_State_And_Width_Of_CRC+0x2e>
 20e:	88 60       	ori	r24, 0x08	; 8
 210:	03 c0       	rjmp	.+6      	; 0x218 <nRF_Set_State_And_Width_Of_CRC+0x34>
 212:	62 30       	cpi	r22, 0x02	; 2
 214:	09 f4       	brne	.+2      	; 0x218 <nRF_Set_State_And_Width_Of_CRC+0x34>
 216:	87 7f       	andi	r24, 0xF7	; 247
 218:	68 2f       	mov	r22, r24
 21a:	80 e0       	ldi	r24, 0x00	; 0
 21c:	0f 90       	pop	r0
 21e:	df 91       	pop	r29
 220:	cf 91       	pop	r28
 222:	1f 91       	pop	r17
 224:	66 cf       	rjmp	.-308    	; 0xf2 <nRF_Config_Register>

00000226 <nRF_RX_Power_Up>:
 226:	29 98       	cbi	0x05, 1	; 5
 228:	80 e0       	ldi	r24, 0x00	; 0
 22a:	5c df       	rcall	.-328    	; 0xe4 <nRF_Read_One_Byte_From_Register>
 22c:	68 2f       	mov	r22, r24
 22e:	63 60       	ori	r22, 0x03	; 3
 230:	80 e0       	ldi	r24, 0x00	; 0
 232:	5f df       	rcall	.-322    	; 0xf2 <nRF_Config_Register>
 234:	29 9a       	sbi	0x05, 1	; 5
 236:	83 e0       	ldi	r24, 0x03	; 3
 238:	91 e0       	ldi	r25, 0x01	; 1
 23a:	01 97       	sbiw	r24, 0x01	; 1
 23c:	f1 f7       	brne	.-4      	; 0x23a <nRF_RX_Power_Up+0x14>
 23e:	00 c0       	rjmp	.+0      	; 0x240 <nRF_RX_Power_Up+0x1a>
 240:	00 00       	nop
 242:	08 95       	ret

00000244 <nRF_RX_EVENT>:
 244:	ff 92       	push	r15
 246:	0f 93       	push	r16
 248:	1f 93       	push	r17
 24a:	cf 93       	push	r28
 24c:	df 93       	push	r29
 24e:	80 91 00 01 	lds	r24, 0x0100
 252:	81 30       	cpi	r24, 0x01	; 1
 254:	19 f4       	brne	.+6      	; 0x25c <nRF_RX_EVENT+0x18>
 256:	e7 df       	rcall	.-50     	; 0x226 <nRF_RX_Power_Up>
 258:	10 92 00 01 	sts	0x0100, r1
 25c:	80 91 28 01 	lds	r24, 0x0128
 260:	88 23       	and	r24, r24
 262:	c9 f1       	breq	.+114    	; 0x2d6 <nRF_RX_EVENT+0x92>
 264:	29 98       	cbi	0x05, 1	; 5
 266:	10 92 28 01 	sts	0x0128, r1
 26a:	84 e0       	ldi	r24, 0x04	; 4
 26c:	91 e0       	ldi	r25, 0x01	; 1
 26e:	08 2f       	mov	r16, r24
 270:	2a 98       	cbi	0x05, 2	; 5
 272:	80 e6       	ldi	r24, 0x60	; 96
 274:	0e df       	rcall	.-484    	; 0x92 <SPI_WriteByte>
 276:	8f ef       	ldi	r24, 0xFF	; 255
 278:	06 df       	rcall	.-500    	; 0x86 <SPI_WriteReadByte>
 27a:	18 2f       	mov	r17, r24
 27c:	2a 9a       	sbi	0x05, 2	; 5
 27e:	81 32       	cpi	r24, 0x21	; 33
 280:	50 f0       	brcs	.+20     	; 0x296 <nRF_RX_EVENT+0x52>
 282:	2a 98       	cbi	0x05, 2	; 5
 284:	8f ef       	ldi	r24, 0xFF	; 255
 286:	ff de       	rcall	.-514    	; 0x86 <SPI_WriteReadByte>
 288:	2a 9a       	sbi	0x05, 2	; 5
 28a:	68 2f       	mov	r22, r24
 28c:	60 64       	ori	r22, 0x40	; 64
 28e:	87 e0       	ldi	r24, 0x07	; 7
 290:	30 df       	rcall	.-416    	; 0xf2 <nRF_Config_Register>
 292:	29 9a       	sbi	0x05, 1	; 5
 294:	20 c0       	rjmp	.+64     	; 0x2d6 <nRF_RX_EVENT+0x92>
 296:	2a 98       	cbi	0x05, 2	; 5
 298:	81 e6       	ldi	r24, 0x61	; 97
 29a:	fb de       	rcall	.-522    	; 0x92 <SPI_WriteByte>
 29c:	c4 e0       	ldi	r28, 0x04	; 4
 29e:	d1 e0       	ldi	r29, 0x01	; 1
 2a0:	f1 2e       	mov	r15, r17
 2a2:	f0 0e       	add	r15, r16
 2a4:	03 c0       	rjmp	.+6      	; 0x2ac <nRF_RX_EVENT+0x68>
 2a6:	8f ef       	ldi	r24, 0xFF	; 255
 2a8:	ee de       	rcall	.-548    	; 0x86 <SPI_WriteReadByte>
 2aa:	89 93       	st	Y+, r24
 2ac:	fc 12       	cpse	r15, r28
 2ae:	fb cf       	rjmp	.-10     	; 0x2a6 <nRF_RX_EVENT+0x62>
 2b0:	2a 9a       	sbi	0x05, 2	; 5
 2b2:	87 e1       	ldi	r24, 0x17	; 23
 2b4:	17 df       	rcall	.-466    	; 0xe4 <nRF_Read_One_Byte_From_Register>
 2b6:	c8 2f       	mov	r28, r24
 2b8:	11 23       	and	r17, r17
 2ba:	51 f0       	breq	.+20     	; 0x2d0 <nRF_RX_EVENT+0x8c>
 2bc:	e0 91 01 01 	lds	r30, 0x0101
 2c0:	f0 91 02 01 	lds	r31, 0x0102
 2c4:	30 97       	sbiw	r30, 0x00	; 0
 2c6:	21 f0       	breq	.+8      	; 0x2d0 <nRF_RX_EVENT+0x8c>
 2c8:	61 2f       	mov	r22, r17
 2ca:	84 e0       	ldi	r24, 0x04	; 4
 2cc:	91 e0       	ldi	r25, 0x01	; 1
 2ce:	09 95       	icall
 2d0:	c0 ff       	sbrs	r28, 0
 2d2:	ce cf       	rjmp	.-100    	; 0x270 <nRF_RX_EVENT+0x2c>
 2d4:	d6 cf       	rjmp	.-84     	; 0x282 <nRF_RX_EVENT+0x3e>
 2d6:	df 91       	pop	r29
 2d8:	cf 91       	pop	r28
 2da:	1f 91       	pop	r17
 2dc:	0f 91       	pop	r16
 2de:	ff 90       	pop	r15
 2e0:	08 95       	ret

000002e2 <nRF_Set_Channel>:
 2e2:	68 2f       	mov	r22, r24
 2e4:	6f 77       	andi	r22, 0x7F	; 127
 2e6:	85 e0       	ldi	r24, 0x05	; 5
 2e8:	04 cf       	rjmp	.-504    	; 0xf2 <nRF_Config_Register>

000002ea <nRF_Clear_TX>:
 2ea:	2a 98       	cbi	0x05, 2	; 5
 2ec:	81 ee       	ldi	r24, 0xE1	; 225
 2ee:	d1 de       	rcall	.-606    	; 0x92 <SPI_WriteByte>
 2f0:	2a 9a       	sbi	0x05, 2	; 5
 2f2:	08 95       	ret

000002f4 <nRF_Clear_RX>:
 2f4:	2a 98       	cbi	0x05, 2	; 5
 2f6:	82 ee       	ldi	r24, 0xE2	; 226
 2f8:	cc de       	rcall	.-616    	; 0x92 <SPI_WriteByte>
 2fa:	2a 9a       	sbi	0x05, 2	; 5
 2fc:	08 95       	ret

000002fe <nRF_Set_Active_DataPipe_And_ACK>:
 2fe:	0f 93       	push	r16
 300:	1f 93       	push	r17
 302:	cf 93       	push	r28
 304:	df 93       	push	r29
 306:	1f 92       	push	r1
 308:	cd b7       	in	r28, 0x3d	; 61
 30a:	de b7       	in	r29, 0x3e	; 62
 30c:	18 2f       	mov	r17, r24
 30e:	04 2f       	mov	r16, r20
 310:	82 e0       	ldi	r24, 0x02	; 2
 312:	69 83       	std	Y+1, r22	; 0x01
 314:	e7 de       	rcall	.-562    	; 0xe4 <nRF_Read_One_Byte_From_Register>
 316:	98 2f       	mov	r25, r24
 318:	69 81       	ldd	r22, Y+1	; 0x01
 31a:	61 30       	cpi	r22, 0x01	; 1
 31c:	11 f4       	brne	.+4      	; 0x322 <nRF_Set_Active_DataPipe_And_ACK+0x24>
 31e:	91 2b       	or	r25, r17
 320:	05 c0       	rjmp	.+10     	; 0x32c <nRF_Set_Active_DataPipe_And_ACK+0x2e>
 322:	62 30       	cpi	r22, 0x02	; 2
 324:	19 f4       	brne	.+6      	; 0x32c <nRF_Set_Active_DataPipe_And_ACK+0x2e>
 326:	81 2f       	mov	r24, r17
 328:	80 95       	com	r24
 32a:	98 23       	and	r25, r24
 32c:	69 2f       	mov	r22, r25
 32e:	82 e0       	ldi	r24, 0x02	; 2
 330:	e0 de       	rcall	.-576    	; 0xf2 <nRF_Config_Register>
 332:	81 e0       	ldi	r24, 0x01	; 1
 334:	d7 de       	rcall	.-594    	; 0xe4 <nRF_Read_One_Byte_From_Register>
 336:	68 2f       	mov	r22, r24
 338:	01 30       	cpi	r16, 0x01	; 1
 33a:	11 f4       	brne	.+4      	; 0x340 <nRF_Set_Active_DataPipe_And_ACK+0x42>
 33c:	61 2b       	or	r22, r17
 33e:	04 c0       	rjmp	.+8      	; 0x348 <nRF_Set_Active_DataPipe_And_ACK+0x4a>
 340:	02 30       	cpi	r16, 0x02	; 2
 342:	11 f4       	brne	.+4      	; 0x348 <nRF_Set_Active_DataPipe_And_ACK+0x4a>
 344:	10 95       	com	r17
 346:	61 23       	and	r22, r17
 348:	81 e0       	ldi	r24, 0x01	; 1
 34a:	0f 90       	pop	r0
 34c:	df 91       	pop	r29
 34e:	cf 91       	pop	r28
 350:	1f 91       	pop	r17
 352:	0f 91       	pop	r16
 354:	ce ce       	rjmp	.-612    	; 0xf2 <nRF_Config_Register>

00000356 <nRF_Set_Dynamic_Payload_State_On_Data_Pipe>:
 356:	cf 93       	push	r28
 358:	c6 2f       	mov	r28, r22
 35a:	68 2f       	mov	r22, r24
 35c:	8c e1       	ldi	r24, 0x1C	; 28
 35e:	c9 de       	rcall	.-622    	; 0xf2 <nRF_Config_Register>
 360:	8d e1       	ldi	r24, 0x1D	; 29
 362:	c0 de       	rcall	.-640    	; 0xe4 <nRF_Read_One_Byte_From_Register>
 364:	c1 30       	cpi	r28, 0x01	; 1
 366:	11 f4       	brne	.+4      	; 0x36c <nRF_Set_Dynamic_Payload_State_On_Data_Pipe+0x16>
 368:	84 60       	ori	r24, 0x04	; 4
 36a:	03 c0       	rjmp	.+6      	; 0x372 <nRF_Set_Dynamic_Payload_State_On_Data_Pipe+0x1c>
 36c:	c2 30       	cpi	r28, 0x02	; 2
 36e:	09 f4       	brne	.+2      	; 0x372 <nRF_Set_Dynamic_Payload_State_On_Data_Pipe+0x1c>
 370:	8b 7f       	andi	r24, 0xFB	; 251
 372:	68 2f       	mov	r22, r24
 374:	8d e1       	ldi	r24, 0x1D	; 29
 376:	cf 91       	pop	r28
 378:	bc ce       	rjmp	.-648    	; 0xf2 <nRF_Config_Register>

0000037a <Initialize_INTERRUPT_For_nRF>:
 37a:	e8 9a       	sbi	0x1d, 0	; 29
 37c:	e9 e6       	ldi	r30, 0x69	; 105
 37e:	f0 e0       	ldi	r31, 0x00	; 0
 380:	80 81       	ld	r24, Z
 382:	82 60       	ori	r24, 0x02	; 2
 384:	80 83       	st	Z, r24
 386:	08 95       	ret

00000388 <nRF_init>:
 388:	6c de       	rcall	.-808    	; 0x62 <init_SPI>
 38a:	f7 df       	rcall	.-18     	; 0x37a <Initialize_INTERRUPT_For_nRF>
 38c:	84 e3       	ldi	r24, 0x34	; 52
 38e:	90 e0       	ldi	r25, 0x00	; 0
 390:	da de       	rcall	.-588    	; 0x146 <nRF_SET_Transmitter_Adres>
 392:	6a e3       	ldi	r22, 0x3A	; 58
 394:	70 e0       	ldi	r23, 0x00	; 0
 396:	8a e0       	ldi	r24, 0x0A	; 10
 398:	f7 de       	rcall	.-530    	; 0x188 <nRF_SET_Reciver_Addres>
 39a:	60 e0       	ldi	r22, 0x00	; 0
 39c:	80 e0       	ldi	r24, 0x00	; 0
 39e:	a9 de       	rcall	.-686    	; 0xf2 <nRF_Config_Register>
 3a0:	a9 df       	rcall	.-174    	; 0x2f4 <nRF_Clear_RX>
 3a2:	a3 df       	rcall	.-186    	; 0x2ea <nRF_Clear_TX>
 3a4:	61 e0       	ldi	r22, 0x01	; 1
 3a6:	81 e0       	ldi	r24, 0x01	; 1
 3a8:	1d df       	rcall	.-454    	; 0x1e4 <nRF_Set_State_And_Width_Of_CRC>
 3aa:	84 e1       	ldi	r24, 0x14	; 20
 3ac:	9a df       	rcall	.-204    	; 0x2e2 <nRF_Set_Channel>
 3ae:	41 e0       	ldi	r20, 0x01	; 1
 3b0:	61 e0       	ldi	r22, 0x01	; 1
 3b2:	81 e0       	ldi	r24, 0x01	; 1
 3b4:	a4 df       	rcall	.-184    	; 0x2fe <nRF_Set_Active_DataPipe_And_ACK>
 3b6:	6f ef       	ldi	r22, 0xFF	; 255
 3b8:	84 e0       	ldi	r24, 0x04	; 4
 3ba:	9b de       	rcall	.-714    	; 0xf2 <nRF_Config_Register>
 3bc:	66 e0       	ldi	r22, 0x06	; 6
 3be:	86 e0       	ldi	r24, 0x06	; 6
 3c0:	98 de       	rcall	.-720    	; 0xf2 <nRF_Config_Register>
 3c2:	61 e0       	ldi	r22, 0x01	; 1
 3c4:	81 e0       	ldi	r24, 0x01	; 1
 3c6:	c7 df       	rcall	.-114    	; 0x356 <nRF_Set_Dynamic_Payload_State_On_Data_Pipe>
 3c8:	81 e0       	ldi	r24, 0x01	; 1
 3ca:	80 93 28 01 	sts	0x0128, r24
 3ce:	10 92 25 01 	sts	0x0125, r1
 3d2:	60 e7       	ldi	r22, 0x70	; 112
 3d4:	87 e0       	ldi	r24, 0x07	; 7
 3d6:	8d ce       	rjmp	.-742    	; 0xf2 <nRF_Config_Register>

000003d8 <__vector_1>:
 3d8:	1f 92       	push	r1
 3da:	0f 92       	push	r0
 3dc:	0f b6       	in	r0, 0x3f	; 63
 3de:	0f 92       	push	r0
 3e0:	11 24       	eor	r1, r1
 3e2:	2f 93       	push	r18
 3e4:	3f 93       	push	r19
 3e6:	4f 93       	push	r20
 3e8:	5f 93       	push	r21
 3ea:	6f 93       	push	r22
 3ec:	7f 93       	push	r23
 3ee:	8f 93       	push	r24
 3f0:	9f 93       	push	r25
 3f2:	af 93       	push	r26
 3f4:	bf 93       	push	r27
 3f6:	cf 93       	push	r28
 3f8:	ef 93       	push	r30
 3fa:	ff 93       	push	r31
 3fc:	2a 98       	cbi	0x05, 2	; 5
 3fe:	8f ef       	ldi	r24, 0xFF	; 255
 400:	42 de       	rcall	.-892    	; 0x86 <SPI_WriteReadByte>
 402:	c8 2f       	mov	r28, r24
 404:	2a 9a       	sbi	0x05, 2	; 5
 406:	86 ff       	sbrs	r24, 6
 408:	03 c0       	rjmp	.+6      	; 0x410 <__vector_1+0x38>
 40a:	81 e0       	ldi	r24, 0x01	; 1
 40c:	80 93 28 01 	sts	0x0128, r24
 410:	c5 ff       	sbrs	r28, 5
 412:	0a c0       	rjmp	.+20     	; 0x428 <__vector_1+0x50>
 414:	c0 62       	ori	r28, 0x20	; 32
 416:	6c 2f       	mov	r22, r28
 418:	87 e0       	ldi	r24, 0x07	; 7
 41a:	6b de       	rcall	.-810    	; 0xf2 <nRF_Config_Register>
 41c:	10 92 25 01 	sts	0x0125, r1
 420:	81 e0       	ldi	r24, 0x01	; 1
 422:	80 93 00 01 	sts	0x0100, r24
 426:	29 98       	cbi	0x05, 1	; 5
 428:	c4 ff       	sbrs	r28, 4
 42a:	0b c0       	rjmp	.+22     	; 0x442 <__vector_1+0x6a>
 42c:	6c 2f       	mov	r22, r28
 42e:	60 63       	ori	r22, 0x30	; 48
 430:	87 e0       	ldi	r24, 0x07	; 7
 432:	5f de       	rcall	.-834    	; 0xf2 <nRF_Config_Register>
 434:	10 92 25 01 	sts	0x0125, r1
 438:	81 e0       	ldi	r24, 0x01	; 1
 43a:	80 93 00 01 	sts	0x0100, r24
 43e:	55 df       	rcall	.-342    	; 0x2ea <nRF_Clear_TX>
 440:	29 98       	cbi	0x05, 1	; 5
 442:	ff 91       	pop	r31
 444:	ef 91       	pop	r30
 446:	cf 91       	pop	r28
 448:	bf 91       	pop	r27
 44a:	af 91       	pop	r26
 44c:	9f 91       	pop	r25
 44e:	8f 91       	pop	r24
 450:	7f 91       	pop	r23
 452:	6f 91       	pop	r22
 454:	5f 91       	pop	r21
 456:	4f 91       	pop	r20
 458:	3f 91       	pop	r19
 45a:	2f 91       	pop	r18
 45c:	0f 90       	pop	r0
 45e:	0f be       	out	0x3f, r0	; 63
 460:	0f 90       	pop	r0
 462:	1f 90       	pop	r1
 464:	18 95       	reti

00000466 <led_init>:
 466:	50 9a       	sbi	0x0a, 0	; 10
 468:	51 9a       	sbi	0x0a, 1	; 10
 46a:	54 9a       	sbi	0x0a, 4	; 10
 46c:	26 9a       	sbi	0x04, 6	; 4
 46e:	27 9a       	sbi	0x04, 7	; 4
 470:	55 9a       	sbi	0x0a, 5	; 10
 472:	56 9a       	sbi	0x0a, 6	; 10
 474:	57 9a       	sbi	0x0a, 7	; 10
 476:	20 9a       	sbi	0x04, 0	; 4
 478:	53 9a       	sbi	0x0a, 3	; 10
 47a:	3b 9a       	sbi	0x07, 3	; 7
 47c:	58 98       	cbi	0x0b, 0	; 11
 47e:	59 98       	cbi	0x0b, 1	; 11
 480:	5c 98       	cbi	0x0b, 4	; 11
 482:	2e 98       	cbi	0x05, 6	; 5
 484:	2f 98       	cbi	0x05, 7	; 5
 486:	5d 98       	cbi	0x0b, 5	; 11
 488:	5e 98       	cbi	0x0b, 6	; 11
 48a:	5f 98       	cbi	0x0b, 7	; 11
 48c:	28 98       	cbi	0x05, 0	; 5
 48e:	5b 98       	cbi	0x0b, 3	; 11
 490:	43 9a       	sbi	0x08, 3	; 8
 492:	08 95       	ret

00000494 <led_on_off>:
 494:	fc 01       	movw	r30, r24
 496:	b0 81       	ld	r27, Z
 498:	a1 81       	ldd	r26, Z+1	; 0x01
 49a:	72 81       	ldd	r23, Z+2	; 0x02
 49c:	63 81       	ldd	r22, Z+3	; 0x03
 49e:	94 81       	ldd	r25, Z+4	; 0x04
 4a0:	55 81       	ldd	r21, Z+5	; 0x05
 4a2:	46 81       	ldd	r20, Z+6	; 0x06
 4a4:	37 81       	ldd	r19, Z+7	; 0x07
 4a6:	20 85       	ldd	r18, Z+8	; 0x08
 4a8:	8a 2f       	mov	r24, r26
 4aa:	8b 2b       	or	r24, r27
 4ac:	87 2b       	or	r24, r23
 4ae:	86 2b       	or	r24, r22
 4b0:	89 2b       	or	r24, r25
 4b2:	85 2b       	or	r24, r21
 4b4:	84 2b       	or	r24, r20
 4b6:	83 2b       	or	r24, r19
 4b8:	82 2b       	or	r24, r18
 4ba:	59 f0       	breq	.+22     	; 0x4d2 <led_on_off+0x3e>
 4bc:	43 98       	cbi	0x08, 3	; 8
 4be:	b1 33       	cpi	r27, 0x31	; 49
 4c0:	41 f4       	brne	.+16     	; 0x4d2 <led_on_off+0x3e>
 4c2:	80 91 2f 01 	lds	r24, 0x012F
 4c6:	81 11       	cpse	r24, r1
 4c8:	04 c0       	rjmp	.+8      	; 0x4d2 <led_on_off+0x3e>
 4ca:	58 9a       	sbi	0x0b, 0	; 11
 4cc:	81 e0       	ldi	r24, 0x01	; 1
 4ce:	80 93 30 01 	sts	0x0130, r24
 4d2:	a1 33       	cpi	r26, 0x31	; 49
 4d4:	41 f4       	brne	.+16     	; 0x4e6 <led_on_off+0x52>
 4d6:	80 91 30 01 	lds	r24, 0x0130
 4da:	81 11       	cpse	r24, r1
 4dc:	04 c0       	rjmp	.+8      	; 0x4e6 <led_on_off+0x52>
 4de:	59 9a       	sbi	0x0b, 1	; 11
 4e0:	81 e0       	ldi	r24, 0x01	; 1
 4e2:	80 93 2f 01 	sts	0x012F, r24
 4e6:	71 33       	cpi	r23, 0x31	; 49
 4e8:	41 f4       	brne	.+16     	; 0x4fa <led_on_off+0x66>
 4ea:	80 91 29 01 	lds	r24, 0x0129
 4ee:	81 11       	cpse	r24, r1
 4f0:	04 c0       	rjmp	.+8      	; 0x4fa <led_on_off+0x66>
 4f2:	5c 9a       	sbi	0x0b, 4	; 11
 4f4:	81 e0       	ldi	r24, 0x01	; 1
 4f6:	80 93 2a 01 	sts	0x012A, r24
 4fa:	61 33       	cpi	r22, 0x31	; 49
 4fc:	41 f4       	brne	.+16     	; 0x50e <__stack+0xf>
 4fe:	80 91 2a 01 	lds	r24, 0x012A
 502:	81 11       	cpse	r24, r1
 504:	04 c0       	rjmp	.+8      	; 0x50e <__stack+0xf>
 506:	2e 9a       	sbi	0x05, 6	; 5
 508:	81 e0       	ldi	r24, 0x01	; 1
 50a:	80 93 29 01 	sts	0x0129, r24
 50e:	91 33       	cpi	r25, 0x31	; 49
 510:	f9 f4       	brne	.+62     	; 0x550 <__stack+0x51>
 512:	80 91 32 01 	lds	r24, 0x0132
 516:	90 91 33 01 	lds	r25, 0x0133
 51a:	89 2b       	or	r24, r25
 51c:	c9 f4       	brne	.+50     	; 0x550 <__stack+0x51>
 51e:	80 91 37 01 	lds	r24, 0x0137
 522:	81 11       	cpse	r24, r1
 524:	0c c0       	rjmp	.+24     	; 0x53e <__stack+0x3f>
 526:	80 91 38 01 	lds	r24, 0x0138
 52a:	81 11       	cpse	r24, r1
 52c:	04 c0       	rjmp	.+8      	; 0x536 <__stack+0x37>
 52e:	2f 9a       	sbi	0x05, 7	; 5
 530:	81 e0       	ldi	r24, 0x01	; 1
 532:	80 93 37 01 	sts	0x0137, r24
 536:	5d 98       	cbi	0x0b, 5	; 11
 538:	10 92 38 01 	sts	0x0138, r1
 53c:	03 c0       	rjmp	.+6      	; 0x544 <__stack+0x45>
 53e:	2f 98       	cbi	0x05, 7	; 5
 540:	10 92 37 01 	sts	0x0137, r1
 544:	82 e3       	ldi	r24, 0x32	; 50
 546:	90 e0       	ldi	r25, 0x00	; 0
 548:	90 93 33 01 	sts	0x0133, r25
 54c:	80 93 32 01 	sts	0x0132, r24
 550:	51 33       	cpi	r21, 0x31	; 49
 552:	f9 f4       	brne	.+62     	; 0x592 <__stack+0x93>
 554:	80 91 35 01 	lds	r24, 0x0135
 558:	90 91 36 01 	lds	r25, 0x0136
 55c:	89 2b       	or	r24, r25
 55e:	c9 f4       	brne	.+50     	; 0x592 <__stack+0x93>
 560:	80 91 38 01 	lds	r24, 0x0138
 564:	81 11       	cpse	r24, r1
 566:	0c c0       	rjmp	.+24     	; 0x580 <__stack+0x81>
 568:	80 91 37 01 	lds	r24, 0x0137
 56c:	81 11       	cpse	r24, r1
 56e:	04 c0       	rjmp	.+8      	; 0x578 <__stack+0x79>
 570:	5d 9a       	sbi	0x0b, 5	; 11
 572:	81 e0       	ldi	r24, 0x01	; 1
 574:	80 93 38 01 	sts	0x0138, r24
 578:	2f 98       	cbi	0x05, 7	; 5
 57a:	10 92 37 01 	sts	0x0137, r1
 57e:	03 c0       	rjmp	.+6      	; 0x586 <__stack+0x87>
 580:	5d 98       	cbi	0x0b, 5	; 11
 582:	10 92 38 01 	sts	0x0138, r1
 586:	82 e3       	ldi	r24, 0x32	; 50
 588:	90 e0       	ldi	r25, 0x00	; 0
 58a:	90 93 36 01 	sts	0x0136, r25
 58e:	80 93 35 01 	sts	0x0135, r24
 592:	41 33       	cpi	r20, 0x31	; 49
 594:	09 f0       	breq	.+2      	; 0x598 <__stack+0x99>
 596:	46 c0       	rjmp	.+140    	; 0x624 <__stack+0x125>
 598:	21 33       	cpi	r18, 0x31	; 49
 59a:	19 f5       	brne	.+70     	; 0x5e2 <__stack+0xe3>
 59c:	80 91 2d 01 	lds	r24, 0x012D
 5a0:	90 91 2e 01 	lds	r25, 0x012E
 5a4:	89 2b       	or	r24, r25
 5a6:	e9 f4       	brne	.+58     	; 0x5e2 <__stack+0xe3>
 5a8:	31 33       	cpi	r19, 0x31	; 49
 5aa:	a9 f0       	breq	.+42     	; 0x5d6 <__stack+0xd7>
 5ac:	80 91 03 01 	lds	r24, 0x0103
 5b0:	81 11       	cpse	r24, r1
 5b2:	05 c0       	rjmp	.+10     	; 0x5be <__stack+0xbf>
 5b4:	81 e0       	ldi	r24, 0x01	; 1
 5b6:	80 93 03 01 	sts	0x0103, r24
 5ba:	5e 9a       	sbi	0x0b, 6	; 11
 5bc:	05 c0       	rjmp	.+10     	; 0x5c8 <__stack+0xc9>
 5be:	81 30       	cpi	r24, 0x01	; 1
 5c0:	29 f4       	brne	.+10     	; 0x5cc <__stack+0xcd>
 5c2:	10 92 03 01 	sts	0x0103, r1
 5c6:	5e 98       	cbi	0x0b, 6	; 11
 5c8:	5b 98       	cbi	0x0b, 3	; 11
 5ca:	05 c0       	rjmp	.+10     	; 0x5d6 <__stack+0xd7>
 5cc:	81 e0       	ldi	r24, 0x01	; 1
 5ce:	80 93 03 01 	sts	0x0103, r24
 5d2:	5b 98       	cbi	0x0b, 3	; 11
 5d4:	5e 9a       	sbi	0x0b, 6	; 11
 5d6:	82 e3       	ldi	r24, 0x32	; 50
 5d8:	90 e0       	ldi	r25, 0x00	; 0
 5da:	90 93 2e 01 	sts	0x012E, r25
 5de:	80 93 2d 01 	sts	0x012D, r24
 5e2:	31 33       	cpi	r19, 0x31	; 49
 5e4:	f9 f4       	brne	.+62     	; 0x624 <__stack+0x125>
 5e6:	80 91 3b 01 	lds	r24, 0x013B
 5ea:	90 91 3c 01 	lds	r25, 0x013C
 5ee:	89 2b       	or	r24, r25
 5f0:	c9 f4       	brne	.+50     	; 0x624 <__stack+0x125>
 5f2:	21 33       	cpi	r18, 0x31	; 49
 5f4:	89 f0       	breq	.+34     	; 0x618 <__stack+0x119>
 5f6:	80 91 03 01 	lds	r24, 0x0103
 5fa:	81 11       	cpse	r24, r1
 5fc:	01 c0       	rjmp	.+2      	; 0x600 <__stack+0x101>
 5fe:	02 c0       	rjmp	.+4      	; 0x604 <__stack+0x105>
 600:	81 30       	cpi	r24, 0x01	; 1
 602:	31 f4       	brne	.+12     	; 0x610 <__stack+0x111>
 604:	82 e0       	ldi	r24, 0x02	; 2
 606:	80 93 03 01 	sts	0x0103, r24
 60a:	5b 9a       	sbi	0x0b, 3	; 11
 60c:	5e 9a       	sbi	0x0b, 6	; 11
 60e:	04 c0       	rjmp	.+8      	; 0x618 <__stack+0x119>
 610:	10 92 03 01 	sts	0x0103, r1
 614:	5b 98       	cbi	0x0b, 3	; 11
 616:	5e 98       	cbi	0x0b, 6	; 11
 618:	82 e3       	ldi	r24, 0x32	; 50
 61a:	90 e0       	ldi	r25, 0x00	; 0
 61c:	90 93 3c 01 	sts	0x013C, r25
 620:	80 93 3b 01 	sts	0x013B, r24
 624:	e4 e0       	ldi	r30, 0x04	; 4
 626:	f1 e0       	ldi	r31, 0x01	; 1
 628:	11 92       	st	Z+, r1
 62a:	81 e0       	ldi	r24, 0x01	; 1
 62c:	ef 30       	cpi	r30, 0x0F	; 15
 62e:	f8 07       	cpc	r31, r24
 630:	d9 f7       	brne	.-10     	; 0x628 <__stack+0x129>
 632:	08 95       	ret

00000634 <receive_and_display>:
 634:	cf 93       	push	r28
 636:	df 93       	push	r29
 638:	cd b7       	in	r28, 0x3d	; 61
 63a:	de b7       	in	r29, 0x3e	; 62
 63c:	2b 97       	sbiw	r28, 0x0b	; 11
 63e:	0f b6       	in	r0, 0x3f	; 63
 640:	f8 94       	cli
 642:	de bf       	out	0x3e, r29	; 62
 644:	0f be       	out	0x3f, r0	; 63
 646:	cd bf       	out	0x3d, r28	; 61
 648:	de 01       	movw	r26, r28
 64a:	11 96       	adiw	r26, 0x01	; 1
 64c:	8b e0       	ldi	r24, 0x0B	; 11
 64e:	fd 01       	movw	r30, r26
 650:	11 92       	st	Z+, r1
 652:	8a 95       	dec	r24
 654:	e9 f7       	brne	.-6      	; 0x650 <receive_and_display+0x1c>
 656:	e4 e0       	ldi	r30, 0x04	; 4
 658:	f1 e0       	ldi	r31, 0x01	; 1
 65a:	81 91       	ld	r24, Z+
 65c:	8d 93       	st	X+, r24
 65e:	81 e0       	ldi	r24, 0x01	; 1
 660:	ef 30       	cpi	r30, 0x0F	; 15
 662:	f8 07       	cpc	r31, r24
 664:	d1 f7       	brne	.-12     	; 0x65a <receive_and_display+0x26>
 666:	43 9a       	sbi	0x08, 3	; 8
 668:	89 81       	ldd	r24, Y+1	; 0x01
 66a:	81 33       	cpi	r24, 0x31	; 49
 66c:	19 f0       	breq	.+6      	; 0x674 <receive_and_display+0x40>
 66e:	58 98       	cbi	0x0b, 0	; 11
 670:	10 92 30 01 	sts	0x0130, r1
 674:	8a 81       	ldd	r24, Y+2	; 0x02
 676:	81 33       	cpi	r24, 0x31	; 49
 678:	19 f0       	breq	.+6      	; 0x680 <receive_and_display+0x4c>
 67a:	59 98       	cbi	0x0b, 1	; 11
 67c:	10 92 2f 01 	sts	0x012F, r1
 680:	8b 81       	ldd	r24, Y+3	; 0x03
 682:	81 33       	cpi	r24, 0x31	; 49
 684:	19 f0       	breq	.+6      	; 0x68c <receive_and_display+0x58>
 686:	5c 98       	cbi	0x0b, 4	; 11
 688:	10 92 2a 01 	sts	0x012A, r1
 68c:	8c 81       	ldd	r24, Y+4	; 0x04
 68e:	81 33       	cpi	r24, 0x31	; 49
 690:	19 f0       	breq	.+6      	; 0x698 <receive_and_display+0x64>
 692:	2e 98       	cbi	0x05, 6	; 5
 694:	10 92 29 01 	sts	0x0129, r1
 698:	ce 01       	movw	r24, r28
 69a:	01 96       	adiw	r24, 0x01	; 1
 69c:	fb de       	rcall	.-522    	; 0x494 <led_on_off>
 69e:	2b 96       	adiw	r28, 0x0b	; 11
 6a0:	0f b6       	in	r0, 0x3f	; 63
 6a2:	f8 94       	cli
 6a4:	de bf       	out	0x3e, r29	; 62
 6a6:	0f be       	out	0x3f, r0	; 63
 6a8:	cd bf       	out	0x3d, r28	; 61
 6aa:	df 91       	pop	r29
 6ac:	cf 91       	pop	r28
 6ae:	08 95       	ret

000006b0 <prog_timer_init>:
 6b0:	e1 e8       	ldi	r30, 0x81	; 129
 6b2:	f0 e0       	ldi	r31, 0x00	; 0
 6b4:	80 81       	ld	r24, Z
 6b6:	88 60       	ori	r24, 0x08	; 8
 6b8:	80 83       	st	Z, r24
 6ba:	80 81       	ld	r24, Z
 6bc:	85 60       	ori	r24, 0x05	; 5
 6be:	80 83       	st	Z, r24
 6c0:	8e e4       	ldi	r24, 0x4E	; 78
 6c2:	90 e0       	ldi	r25, 0x00	; 0
 6c4:	90 93 89 00 	sts	0x0089, r25
 6c8:	80 93 88 00 	sts	0x0088, r24
 6cc:	ef e6       	ldi	r30, 0x6F	; 111
 6ce:	f0 e0       	ldi	r31, 0x00	; 0
 6d0:	80 81       	ld	r24, Z
 6d2:	82 60       	ori	r24, 0x02	; 2
 6d4:	80 83       	st	Z, r24
 6d6:	08 95       	ret

000006d8 <main>:
 6d8:	88 e1       	ldi	r24, 0x18	; 24
 6da:	0f b6       	in	r0, 0x3f	; 63
 6dc:	f8 94       	cli
 6de:	80 93 60 00 	sts	0x0060, r24
 6e2:	10 92 60 00 	sts	0x0060, r1
 6e6:	0f be       	out	0x3f, r0	; 63
 6e8:	4f de       	rcall	.-866    	; 0x388 <nRF_init>
 6ea:	bd de       	rcall	.-646    	; 0x466 <led_init>
 6ec:	e1 df       	rcall	.-62     	; 0x6b0 <prog_timer_init>
 6ee:	78 94       	sei
 6f0:	9a dd       	rcall	.-1228   	; 0x226 <nRF_RX_Power_Up>
 6f2:	81 e0       	ldi	r24, 0x01	; 1
 6f4:	90 e0       	ldi	r25, 0x00	; 0
 6f6:	90 93 2c 01 	sts	0x012C, r25
 6fa:	80 93 2b 01 	sts	0x012B, r24
 6fe:	82 e3       	ldi	r24, 0x32	; 50
 700:	90 e0       	ldi	r25, 0x00	; 0
 702:	90 93 33 01 	sts	0x0133, r25
 706:	80 93 32 01 	sts	0x0132, r24
 70a:	90 93 36 01 	sts	0x0136, r25
 70e:	80 93 35 01 	sts	0x0135, r24
 712:	90 93 3a 01 	sts	0x013A, r25
 716:	80 93 39 01 	sts	0x0139, r24
 71a:	90 93 2e 01 	sts	0x012E, r25
 71e:	80 93 2d 01 	sts	0x012D, r24
 722:	28 e2       	ldi	r18, 0x28	; 40
 724:	88 e1       	ldi	r24, 0x18	; 24
 726:	90 e0       	ldi	r25, 0x00	; 0
 728:	0f b6       	in	r0, 0x3f	; 63
 72a:	f8 94       	cli
 72c:	a8 95       	wdr
 72e:	80 93 60 00 	sts	0x0060, r24
 732:	0f be       	out	0x3f, r0	; 63
 734:	20 93 60 00 	sts	0x0060, r18
 738:	c1 e0       	ldi	r28, 0x01	; 1
 73a:	d0 e0       	ldi	r29, 0x00	; 0
 73c:	83 dd       	rcall	.-1274   	; 0x244 <nRF_RX_EVENT>
 73e:	80 91 2b 01 	lds	r24, 0x012B
 742:	90 91 2c 01 	lds	r25, 0x012C
 746:	89 2b       	or	r24, r25
 748:	29 f4       	brne	.+10     	; 0x754 <main+0x7c>
 74a:	74 df       	rcall	.-280    	; 0x634 <receive_and_display>
 74c:	d0 93 2c 01 	sts	0x012C, r29
 750:	c0 93 2b 01 	sts	0x012B, r28
 754:	a8 95       	wdr
 756:	f2 cf       	rjmp	.-28     	; 0x73c <main+0x64>

00000758 <__vector_11>:
 758:	1f 92       	push	r1
 75a:	0f 92       	push	r0
 75c:	0f b6       	in	r0, 0x3f	; 63
 75e:	0f 92       	push	r0
 760:	11 24       	eor	r1, r1
 762:	8f 93       	push	r24
 764:	9f 93       	push	r25
 766:	80 91 2b 01 	lds	r24, 0x012B
 76a:	90 91 2c 01 	lds	r25, 0x012C
 76e:	00 97       	sbiw	r24, 0x00	; 0
 770:	29 f0       	breq	.+10     	; 0x77c <__vector_11+0x24>
 772:	01 97       	sbiw	r24, 0x01	; 1
 774:	90 93 2c 01 	sts	0x012C, r25
 778:	80 93 2b 01 	sts	0x012B, r24
 77c:	80 91 32 01 	lds	r24, 0x0132
 780:	90 91 33 01 	lds	r25, 0x0133
 784:	00 97       	sbiw	r24, 0x00	; 0
 786:	29 f0       	breq	.+10     	; 0x792 <__vector_11+0x3a>
 788:	01 97       	sbiw	r24, 0x01	; 1
 78a:	90 93 33 01 	sts	0x0133, r25
 78e:	80 93 32 01 	sts	0x0132, r24
 792:	80 91 35 01 	lds	r24, 0x0135
 796:	90 91 36 01 	lds	r25, 0x0136
 79a:	00 97       	sbiw	r24, 0x00	; 0
 79c:	29 f0       	breq	.+10     	; 0x7a8 <__vector_11+0x50>
 79e:	01 97       	sbiw	r24, 0x01	; 1
 7a0:	90 93 36 01 	sts	0x0136, r25
 7a4:	80 93 35 01 	sts	0x0135, r24
 7a8:	80 91 39 01 	lds	r24, 0x0139
 7ac:	90 91 3a 01 	lds	r25, 0x013A
 7b0:	00 97       	sbiw	r24, 0x00	; 0
 7b2:	29 f0       	breq	.+10     	; 0x7be <__vector_11+0x66>
 7b4:	01 97       	sbiw	r24, 0x01	; 1
 7b6:	90 93 3a 01 	sts	0x013A, r25
 7ba:	80 93 39 01 	sts	0x0139, r24
 7be:	80 91 2d 01 	lds	r24, 0x012D
 7c2:	90 91 2e 01 	lds	r25, 0x012E
 7c6:	00 97       	sbiw	r24, 0x00	; 0
 7c8:	29 f0       	breq	.+10     	; 0x7d4 <__vector_11+0x7c>
 7ca:	01 97       	sbiw	r24, 0x01	; 1
 7cc:	90 93 2e 01 	sts	0x012E, r25
 7d0:	80 93 2d 01 	sts	0x012D, r24
 7d4:	80 91 3b 01 	lds	r24, 0x013B
 7d8:	90 91 3c 01 	lds	r25, 0x013C
 7dc:	00 97       	sbiw	r24, 0x00	; 0
 7de:	29 f0       	breq	.+10     	; 0x7ea <__vector_11+0x92>
 7e0:	01 97       	sbiw	r24, 0x01	; 1
 7e2:	90 93 3c 01 	sts	0x013C, r25
 7e6:	80 93 3b 01 	sts	0x013B, r24
 7ea:	9f 91       	pop	r25
 7ec:	8f 91       	pop	r24
 7ee:	0f 90       	pop	r0
 7f0:	0f be       	out	0x3f, r0	; 63
 7f2:	0f 90       	pop	r0
 7f4:	1f 90       	pop	r1
 7f6:	18 95       	reti

000007f8 <_exit>:
 7f8:	f8 94       	cli

000007fa <__stop_program>:
 7fa:	ff cf       	rjmp	.-2      	; 0x7fa <__stop_program>
