
30_METEO_main_station.elf:     file format elf32-avr

Sections:
Idx Name          Size      VMA       LMA       File off  Algn
  0 .text         0000138a  00000000  00000000  00000094  2**1
                  CONTENTS, ALLOC, LOAD, READONLY, CODE
  1 .data         0000008e  00800060  0000138a  0000141e  2**0
                  CONTENTS, ALLOC, LOAD, DATA
  2 .bss          0000006f  008000ee  008000ee  000014ac  2**0
                  ALLOC
  3 .stab         00000c78  00000000  00000000  000014ac  2**2
                  CONTENTS, READONLY, DEBUGGING
  4 .stabstr      00000270  00000000  00000000  00002124  2**0
                  CONTENTS, READONLY, DEBUGGING
  5 .comment      0000002f  00000000  00000000  00002394  2**0
                  CONTENTS, READONLY

Disassembly of section .text:

00000000 <__vectors>:
       0:	0c 94 3c 00 	jmp	0x78	; 0x78 <__ctors_end>
       4:	0c 94 59 00 	jmp	0xb2	; 0xb2 <__bad_interrupt>
       8:	0c 94 59 00 	jmp	0xb2	; 0xb2 <__bad_interrupt>
       c:	0c 94 59 00 	jmp	0xb2	; 0xb2 <__bad_interrupt>
      10:	0c 94 59 00 	jmp	0xb2	; 0xb2 <__bad_interrupt>
      14:	0c 94 59 00 	jmp	0xb2	; 0xb2 <__bad_interrupt>
      18:	0c 94 59 00 	jmp	0xb2	; 0xb2 <__bad_interrupt>
      1c:	0c 94 59 00 	jmp	0xb2	; 0xb2 <__bad_interrupt>
      20:	0c 94 59 00 	jmp	0xb2	; 0xb2 <__bad_interrupt>
      24:	0c 94 59 00 	jmp	0xb2	; 0xb2 <__bad_interrupt>
      28:	0c 94 59 00 	jmp	0xb2	; 0xb2 <__bad_interrupt>
      2c:	0c 94 59 00 	jmp	0xb2	; 0xb2 <__bad_interrupt>
      30:	0c 94 59 00 	jmp	0xb2	; 0xb2 <__bad_interrupt>
      34:	0c 94 f0 01 	jmp	0x3e0	; 0x3e0 <__vector_13>
      38:	0c 94 b4 01 	jmp	0x368	; 0x368 <__vector_14>
      3c:	0c 94 44 01 	jmp	0x288	; 0x288 <__vector_15>
      40:	0c 94 59 00 	jmp	0xb2	; 0xb2 <__bad_interrupt>
      44:	0c 94 59 00 	jmp	0xb2	; 0xb2 <__bad_interrupt>
      48:	0c 94 59 00 	jmp	0xb2	; 0xb2 <__bad_interrupt>
      4c:	0c 94 59 00 	jmp	0xb2	; 0xb2 <__bad_interrupt>
      50:	0c 94 59 00 	jmp	0xb2	; 0xb2 <__bad_interrupt>

00000054 <U_ATTR_OFF>:
      54:	1b 5b 6d 00                                         .[m.

00000058 <UCUR_SHOW>:
      58:	1b 5b 3f 32 35 68 00                                .[?25h.

0000005f <UCUR_HIDE>:
      5f:	1b 5b 3f 32 35 6c 00                                .[?25l.

00000066 <UHOME>:
      66:	1b 5b 3b 48 00                                      .[;H.

0000006b <UCLS>:
      6b:	1b 5b 32 4a 00                                      .[2J.

00000070 <degree>:
      70:	0e 11 11 11 0e 20 20 20                             .....   

00000078 <__ctors_end>:
      78:	11 24       	eor	r1, r1
      7a:	1f be       	out	0x3f, r1	; 63
      7c:	cf e5       	ldi	r28, 0x5F	; 95
      7e:	d8 e0       	ldi	r29, 0x08	; 8
      80:	de bf       	out	0x3e, r29	; 62
      82:	cd bf       	out	0x3d, r28	; 61

00000084 <__do_copy_data>:
      84:	10 e0       	ldi	r17, 0x00	; 0
      86:	a0 e6       	ldi	r26, 0x60	; 96
      88:	b0 e0       	ldi	r27, 0x00	; 0
      8a:	ea e8       	ldi	r30, 0x8A	; 138
      8c:	f3 e1       	ldi	r31, 0x13	; 19
      8e:	02 c0       	rjmp	.+4      	; 0x94 <__do_copy_data+0x10>
      90:	05 90       	lpm	r0, Z+
      92:	0d 92       	st	X+, r0
      94:	ae 3e       	cpi	r26, 0xEE	; 238
      96:	b1 07       	cpc	r27, r17
      98:	d9 f7       	brne	.-10     	; 0x90 <__do_copy_data+0xc>

0000009a <__do_clear_bss>:
      9a:	21 e0       	ldi	r18, 0x01	; 1
      9c:	ae ee       	ldi	r26, 0xEE	; 238
      9e:	b0 e0       	ldi	r27, 0x00	; 0
      a0:	01 c0       	rjmp	.+2      	; 0xa4 <.do_clear_bss_start>

000000a2 <.do_clear_bss_loop>:
      a2:	1d 92       	st	X+, r1

000000a4 <.do_clear_bss_start>:
      a4:	ad 35       	cpi	r26, 0x5D	; 93
      a6:	b2 07       	cpc	r27, r18
      a8:	e1 f7       	brne	.-8      	; 0xa2 <.do_clear_bss_loop>
      aa:	0e 94 72 08 	call	0x10e4	; 0x10e4 <main>
      ae:	0c 94 c3 09 	jmp	0x1386	; 0x1386 <_exit>

000000b2 <__bad_interrupt>:
      b2:	0c 94 00 00 	jmp	0	; 0x0 <__vectors>

000000b6 <tr_cursor_show>:
      b6:	88 23       	and	r24, r24
      b8:	19 f0       	breq	.+6      	; 0xc0 <tr_cursor_show+0xa>
      ba:	88 e5       	ldi	r24, 0x58	; 88
      bc:	90 e0       	ldi	r25, 0x00	; 0
      be:	02 c0       	rjmp	.+4      	; 0xc4 <tr_cursor_show+0xe>
      c0:	8f e5       	ldi	r24, 0x5F	; 95
      c2:	90 e0       	ldi	r25, 0x00	; 0
      c4:	0c 94 6c 01 	jmp	0x2d8	; 0x2d8 <uart_puts_P>

000000c8 <tr_cls>:
      c8:	cf 93       	push	r28
      ca:	c8 2f       	mov	r28, r24
      cc:	84 e5       	ldi	r24, 0x54	; 84
      ce:	90 e0       	ldi	r25, 0x00	; 0
      d0:	0e 94 6c 01 	call	0x2d8	; 0x2d8 <uart_puts_P>
      d4:	8c 2f       	mov	r24, r28
      d6:	0e 94 5b 00 	call	0xb6	; 0xb6 <tr_cursor_show>
      da:	8b e6       	ldi	r24, 0x6B	; 107
      dc:	90 e0       	ldi	r25, 0x00	; 0
      de:	0e 94 6c 01 	call	0x2d8	; 0x2d8 <uart_puts_P>
      e2:	86 e6       	ldi	r24, 0x66	; 102
      e4:	90 e0       	ldi	r25, 0x00	; 0
      e6:	cf 91       	pop	r28
      e8:	0c 94 6c 01 	jmp	0x2d8	; 0x2d8 <uart_puts_P>

000000ec <fill_line>:
      ec:	0f 93       	push	r16
      ee:	1f 93       	push	r17
      f0:	cf 93       	push	r28
      f2:	df 93       	push	r29
      f4:	1f 92       	push	r1
      f6:	cd b7       	in	r28, 0x3d	; 61
      f8:	de b7       	in	r29, 0x3e	; 62
      fa:	08 2f       	mov	r16, r24
      fc:	10 e0       	ldi	r17, 0x00	; 0
      fe:	06 c0       	rjmp	.+12     	; 0x10c <fill_line+0x20>
     100:	80 2f       	mov	r24, r16
     102:	69 83       	std	Y+1, r22	; 0x01
     104:	0e 94 4f 01 	call	0x29e	; 0x29e <uart_putc>
     108:	1f 5f       	subi	r17, 0xFF	; 255
     10a:	69 81       	ldd	r22, Y+1	; 0x01
     10c:	16 13       	cpse	r17, r22
     10e:	f8 cf       	rjmp	.-16     	; 0x100 <fill_line+0x14>
     110:	0f 90       	pop	r0
     112:	df 91       	pop	r29
     114:	cf 91       	pop	r28
     116:	1f 91       	pop	r17
     118:	0f 91       	pop	r16
     11a:	08 95       	ret

0000011c <tr_attr>:
     11c:	1f 93       	push	r17
     11e:	cf 93       	push	r28
     120:	df 93       	push	r29
     122:	00 d0       	rcall	.+0      	; 0x124 <tr_attr+0x8>
     124:	cd b7       	in	r28, 0x3d	; 61
     126:	de b7       	in	r29, 0x3e	; 62
     128:	18 2f       	mov	r17, r24
     12a:	8b e1       	ldi	r24, 0x1B	; 27
     12c:	4a 83       	std	Y+2, r20	; 0x02
     12e:	69 83       	std	Y+1, r22	; 0x01
     130:	0e 94 4f 01 	call	0x29e	; 0x29e <uart_putc>
     134:	8b e5       	ldi	r24, 0x5B	; 91
     136:	0e 94 4f 01 	call	0x29e	; 0x29e <uart_putc>
     13a:	81 2f       	mov	r24, r17
     13c:	80 5d       	subi	r24, 0xD0	; 208
     13e:	0e 94 4f 01 	call	0x29e	; 0x29e <uart_putc>
     142:	8b e3       	ldi	r24, 0x3B	; 59
     144:	0e 94 4f 01 	call	0x29e	; 0x29e <uart_putc>
     148:	83 e3       	ldi	r24, 0x33	; 51
     14a:	0e 94 4f 01 	call	0x29e	; 0x29e <uart_putc>
     14e:	69 81       	ldd	r22, Y+1	; 0x01
     150:	86 2f       	mov	r24, r22
     152:	80 5d       	subi	r24, 0xD0	; 208
     154:	0e 94 4f 01 	call	0x29e	; 0x29e <uart_putc>
     158:	8b e3       	ldi	r24, 0x3B	; 59
     15a:	0e 94 4f 01 	call	0x29e	; 0x29e <uart_putc>
     15e:	84 e3       	ldi	r24, 0x34	; 52
     160:	0e 94 4f 01 	call	0x29e	; 0x29e <uart_putc>
     164:	4a 81       	ldd	r20, Y+2	; 0x02
     166:	84 2f       	mov	r24, r20
     168:	80 5d       	subi	r24, 0xD0	; 208
     16a:	0e 94 4f 01 	call	0x29e	; 0x29e <uart_putc>
     16e:	8d e6       	ldi	r24, 0x6D	; 109
     170:	0f 90       	pop	r0
     172:	0f 90       	pop	r0
     174:	df 91       	pop	r29
     176:	cf 91       	pop	r28
     178:	1f 91       	pop	r17
     17a:	0c 94 4f 01 	jmp	0x29e	; 0x29e <uart_putc>

0000017e <tr_pen_color>:
     17e:	cf 93       	push	r28
     180:	c8 2f       	mov	r28, r24
     182:	8b e1       	ldi	r24, 0x1B	; 27
     184:	0e 94 4f 01 	call	0x29e	; 0x29e <uart_putc>
     188:	8b e5       	ldi	r24, 0x5B	; 91
     18a:	0e 94 4f 01 	call	0x29e	; 0x29e <uart_putc>
     18e:	83 e3       	ldi	r24, 0x33	; 51
     190:	0e 94 4f 01 	call	0x29e	; 0x29e <uart_putc>
     194:	8c 2f       	mov	r24, r28
     196:	80 5d       	subi	r24, 0xD0	; 208
     198:	0e 94 4f 01 	call	0x29e	; 0x29e <uart_putc>
     19c:	8d e6       	ldi	r24, 0x6D	; 109
     19e:	cf 91       	pop	r28
     1a0:	0c 94 4f 01 	jmp	0x29e	; 0x29e <uart_putc>

000001a4 <tr_brush_color>:
     1a4:	cf 93       	push	r28
     1a6:	c8 2f       	mov	r28, r24
     1a8:	8b e1       	ldi	r24, 0x1B	; 27
     1aa:	0e 94 4f 01 	call	0x29e	; 0x29e <uart_putc>
     1ae:	8b e5       	ldi	r24, 0x5B	; 91
     1b0:	0e 94 4f 01 	call	0x29e	; 0x29e <uart_putc>
     1b4:	84 e3       	ldi	r24, 0x34	; 52
     1b6:	0e 94 4f 01 	call	0x29e	; 0x29e <uart_putc>
     1ba:	8c 2f       	mov	r24, r28
     1bc:	80 5d       	subi	r24, 0xD0	; 208
     1be:	0e 94 4f 01 	call	0x29e	; 0x29e <uart_putc>
     1c2:	8d e6       	ldi	r24, 0x6D	; 109
     1c4:	cf 91       	pop	r28
     1c6:	0c 94 4f 01 	jmp	0x29e	; 0x29e <uart_putc>

000001ca <tr_locate>:
     1ca:	cf 93       	push	r28
     1cc:	df 93       	push	r29
     1ce:	d8 2f       	mov	r29, r24
     1d0:	c6 2f       	mov	r28, r22
     1d2:	8b e1       	ldi	r24, 0x1B	; 27
     1d4:	0e 94 4f 01 	call	0x29e	; 0x29e <uart_putc>
     1d8:	8b e5       	ldi	r24, 0x5B	; 91
     1da:	0e 94 4f 01 	call	0x29e	; 0x29e <uart_putc>
     1de:	6a e0       	ldi	r22, 0x0A	; 10
     1e0:	70 e0       	ldi	r23, 0x00	; 0
     1e2:	8d 2f       	mov	r24, r29
     1e4:	90 e0       	ldi	r25, 0x00	; 0
     1e6:	0e 94 7a 01 	call	0x2f4	; 0x2f4 <uart_putint>
     1ea:	8b e3       	ldi	r24, 0x3B	; 59
     1ec:	0e 94 4f 01 	call	0x29e	; 0x29e <uart_putc>
     1f0:	6a e0       	ldi	r22, 0x0A	; 10
     1f2:	70 e0       	ldi	r23, 0x00	; 0
     1f4:	8c 2f       	mov	r24, r28
     1f6:	90 e0       	ldi	r25, 0x00	; 0
     1f8:	0e 94 7a 01 	call	0x2f4	; 0x2f4 <uart_putint>
     1fc:	88 e4       	ldi	r24, 0x48	; 72
     1fe:	df 91       	pop	r29
     200:	cf 91       	pop	r28
     202:	0c 94 4f 01 	jmp	0x29e	; 0x29e <uart_putc>

00000206 <tr_create_win>:
     206:	43 e0       	ldi	r20, 0x03	; 3
     208:	64 e0       	ldi	r22, 0x04	; 4
     20a:	80 e0       	ldi	r24, 0x00	; 0
     20c:	0e 94 8e 00 	call	0x11c	; 0x11c <tr_attr>
     210:	60 e0       	ldi	r22, 0x00	; 0
     212:	82 e0       	ldi	r24, 0x02	; 2
     214:	0e 94 e5 00 	call	0x1ca	; 0x1ca <tr_locate>
     218:	87 ee       	ldi	r24, 0xE7	; 231
     21a:	90 e0       	ldi	r25, 0x00	; 0
     21c:	0e 94 60 01 	call	0x2c0	; 0x2c0 <uart_puts>
     220:	60 e0       	ldi	r22, 0x00	; 0
     222:	83 e0       	ldi	r24, 0x03	; 3
     224:	0e 94 e5 00 	call	0x1ca	; 0x1ca <tr_locate>
     228:	87 ee       	ldi	r24, 0xE7	; 231
     22a:	90 e0       	ldi	r25, 0x00	; 0
     22c:	0e 94 60 01 	call	0x2c0	; 0x2c0 <uart_puts>
     230:	60 e0       	ldi	r22, 0x00	; 0
     232:	84 e0       	ldi	r24, 0x04	; 4
     234:	0e 94 e5 00 	call	0x1ca	; 0x1ca <tr_locate>
     238:	87 ee       	ldi	r24, 0xE7	; 231
     23a:	90 e0       	ldi	r25, 0x00	; 0
     23c:	0e 94 60 01 	call	0x2c0	; 0x2c0 <uart_puts>
     240:	62 e2       	ldi	r22, 0x22	; 34
     242:	82 e0       	ldi	r24, 0x02	; 2
     244:	0e 94 e5 00 	call	0x1ca	; 0x1ca <tr_locate>
     248:	87 ee       	ldi	r24, 0xE7	; 231
     24a:	90 e0       	ldi	r25, 0x00	; 0
     24c:	0e 94 60 01 	call	0x2c0	; 0x2c0 <uart_puts>
     250:	62 e2       	ldi	r22, 0x22	; 34
     252:	83 e0       	ldi	r24, 0x03	; 3
     254:	0e 94 e5 00 	call	0x1ca	; 0x1ca <tr_locate>
     258:	87 ee       	ldi	r24, 0xE7	; 231
     25a:	90 e0       	ldi	r25, 0x00	; 0
     25c:	0e 94 60 01 	call	0x2c0	; 0x2c0 <uart_puts>
     260:	62 e2       	ldi	r22, 0x22	; 34
     262:	84 e0       	ldi	r24, 0x04	; 4
     264:	0e 94 e5 00 	call	0x1ca	; 0x1ca <tr_locate>
     268:	87 ee       	ldi	r24, 0xE7	; 231
     26a:	90 e0       	ldi	r25, 0x00	; 0
     26c:	0c 94 60 01 	jmp	0x2c0	; 0x2c0 <uart_puts>

00000270 <USART_Init>:
     270:	90 bd       	out	0x20, r25	; 32
     272:	89 b9       	out	0x09, r24	; 9
     274:	88 e1       	ldi	r24, 0x18	; 24
     276:	8a b9       	out	0x0a, r24	; 10
     278:	86 e8       	ldi	r24, 0x86	; 134
     27a:	80 bd       	out	0x20, r24	; 32
     27c:	8a 9a       	sbi	0x11, 2	; 17
     27e:	92 9a       	sbi	0x12, 2	; 18
     280:	8a b1       	in	r24, 0x0a	; 10
     282:	88 6d       	ori	r24, 0xD8	; 216
     284:	8a b9       	out	0x0a, r24	; 10
     286:	08 95       	ret

00000288 <__vector_15>:
     288:	1f 92       	push	r1
     28a:	0f 92       	push	r0
     28c:	0f b6       	in	r0, 0x3f	; 63
     28e:	0f 92       	push	r0
     290:	11 24       	eor	r1, r1
     292:	92 98       	cbi	0x12, 2	; 18
     294:	0f 90       	pop	r0
     296:	0f be       	out	0x3f, r0	; 63
     298:	0f 90       	pop	r0
     29a:	1f 90       	pop	r1
     29c:	18 95       	reti

0000029e <uart_putc>:
     29e:	90 91 ee 00 	lds	r25, 0x00EE
     2a2:	9f 5f       	subi	r25, 0xFF	; 255
     2a4:	9f 70       	andi	r25, 0x0F	; 15
     2a6:	20 91 ef 00 	lds	r18, 0x00EF
     2aa:	92 17       	cp	r25, r18
     2ac:	e1 f3       	breq	.-8      	; 0x2a6 <uart_putc+0x8>
     2ae:	e9 2f       	mov	r30, r25
     2b0:	f0 e0       	ldi	r31, 0x00	; 0
     2b2:	e0 51       	subi	r30, 0x10	; 16
     2b4:	ff 4f       	sbci	r31, 0xFF	; 255
     2b6:	80 83       	st	Z, r24
     2b8:	90 93 ee 00 	sts	0x00EE, r25
     2bc:	55 9a       	sbi	0x0a, 5	; 10
     2be:	08 95       	ret

000002c0 <uart_puts>:
     2c0:	cf 93       	push	r28
     2c2:	df 93       	push	r29
     2c4:	ec 01       	movw	r28, r24
     2c6:	02 c0       	rjmp	.+4      	; 0x2cc <uart_puts+0xc>
     2c8:	0e 94 4f 01 	call	0x29e	; 0x29e <uart_putc>
     2cc:	89 91       	ld	r24, Y+
     2ce:	81 11       	cpse	r24, r1
     2d0:	fb cf       	rjmp	.-10     	; 0x2c8 <uart_puts+0x8>
     2d2:	df 91       	pop	r29
     2d4:	cf 91       	pop	r28
     2d6:	08 95       	ret

000002d8 <uart_puts_P>:
     2d8:	cf 93       	push	r28
     2da:	df 93       	push	r29
     2dc:	ec 01       	movw	r28, r24
     2de:	02 c0       	rjmp	.+4      	; 0x2e4 <uart_puts_P+0xc>
     2e0:	0e 94 4f 01 	call	0x29e	; 0x29e <uart_putc>
     2e4:	fe 01       	movw	r30, r28
     2e6:	21 96       	adiw	r28, 0x01	; 1
     2e8:	84 91       	lpm	r24, Z
     2ea:	81 11       	cpse	r24, r1
     2ec:	f9 cf       	rjmp	.-14     	; 0x2e0 <uart_puts_P+0x8>
     2ee:	df 91       	pop	r29
     2f0:	cf 91       	pop	r28
     2f2:	08 95       	ret

000002f4 <uart_putint>:
     2f4:	cf 93       	push	r28
     2f6:	df 93       	push	r29
     2f8:	cd b7       	in	r28, 0x3d	; 61
     2fa:	de b7       	in	r29, 0x3e	; 62
     2fc:	61 97       	sbiw	r28, 0x11	; 17
     2fe:	0f b6       	in	r0, 0x3f	; 63
     300:	f8 94       	cli
     302:	de bf       	out	0x3e, r29	; 62
     304:	0f be       	out	0x3f, r0	; 63
     306:	cd bf       	out	0x3d, r28	; 61
     308:	ab 01       	movw	r20, r22
     30a:	be 01       	movw	r22, r28
     30c:	6f 5f       	subi	r22, 0xFF	; 255
     30e:	7f 4f       	sbci	r23, 0xFF	; 255
     310:	0e 94 56 09 	call	0x12ac	; 0x12ac <itoa>
     314:	ce 01       	movw	r24, r28
     316:	01 96       	adiw	r24, 0x01	; 1
     318:	0e 94 60 01 	call	0x2c0	; 0x2c0 <uart_puts>
     31c:	61 96       	adiw	r28, 0x11	; 17
     31e:	0f b6       	in	r0, 0x3f	; 63
     320:	f8 94       	cli
     322:	de bf       	out	0x3e, r29	; 62
     324:	0f be       	out	0x3f, r0	; 63
     326:	cd bf       	out	0x3d, r28	; 61
     328:	df 91       	pop	r29
     32a:	cf 91       	pop	r28
     32c:	08 95       	ret

0000032e <uart_putlong>:
     32e:	cf 93       	push	r28
     330:	df 93       	push	r29
     332:	cd b7       	in	r28, 0x3d	; 61
     334:	de b7       	in	r29, 0x3e	; 62
     336:	a1 97       	sbiw	r28, 0x21	; 33
     338:	0f b6       	in	r0, 0x3f	; 63
     33a:	f8 94       	cli
     33c:	de bf       	out	0x3e, r29	; 62
     33e:	0f be       	out	0x3f, r0	; 63
     340:	cd bf       	out	0x3d, r28	; 61
     342:	ab 01       	movw	r20, r22
     344:	be 01       	movw	r22, r28
     346:	6f 5f       	subi	r22, 0xFF	; 255
     348:	7f 4f       	sbci	r23, 0xFF	; 255
     34a:	0e 94 56 09 	call	0x12ac	; 0x12ac <itoa>
     34e:	ce 01       	movw	r24, r28
     350:	01 96       	adiw	r24, 0x01	; 1
     352:	0e 94 60 01 	call	0x2c0	; 0x2c0 <uart_puts>
     356:	a1 96       	adiw	r28, 0x21	; 33
     358:	0f b6       	in	r0, 0x3f	; 63
     35a:	f8 94       	cli
     35c:	de bf       	out	0x3e, r29	; 62
     35e:	0f be       	out	0x3f, r0	; 63
     360:	cd bf       	out	0x3d, r28	; 61
     362:	df 91       	pop	r29
     364:	cf 91       	pop	r28
     366:	08 95       	ret

00000368 <__vector_14>:
     368:	1f 92       	push	r1
     36a:	0f 92       	push	r0
     36c:	0f b6       	in	r0, 0x3f	; 63
     36e:	0f 92       	push	r0
     370:	11 24       	eor	r1, r1
     372:	8f 93       	push	r24
     374:	9f 93       	push	r25
     376:	ef 93       	push	r30
     378:	ff 93       	push	r31
     37a:	90 91 ee 00 	lds	r25, 0x00EE
     37e:	80 91 ef 00 	lds	r24, 0x00EF
     382:	98 17       	cp	r25, r24
     384:	71 f0       	breq	.+28     	; 0x3a2 <__vector_14+0x3a>
     386:	80 91 ef 00 	lds	r24, 0x00EF
     38a:	8f 5f       	subi	r24, 0xFF	; 255
     38c:	8f 70       	andi	r24, 0x0F	; 15
     38e:	80 93 ef 00 	sts	0x00EF, r24
     392:	e0 91 ef 00 	lds	r30, 0x00EF
     396:	f0 e0       	ldi	r31, 0x00	; 0
     398:	e0 51       	subi	r30, 0x10	; 16
     39a:	ff 4f       	sbci	r31, 0xFF	; 255
     39c:	80 81       	ld	r24, Z
     39e:	8c b9       	out	0x0c, r24	; 12
     3a0:	01 c0       	rjmp	.+2      	; 0x3a4 <__vector_14+0x3c>
     3a2:	55 98       	cbi	0x0a, 5	; 10
     3a4:	ff 91       	pop	r31
     3a6:	ef 91       	pop	r30
     3a8:	9f 91       	pop	r25
     3aa:	8f 91       	pop	r24
     3ac:	0f 90       	pop	r0
     3ae:	0f be       	out	0x3f, r0	; 63
     3b0:	0f 90       	pop	r0
     3b2:	1f 90       	pop	r1
     3b4:	18 95       	reti

000003b6 <uart_getc>:
     3b6:	90 91 00 01 	lds	r25, 0x0100
     3ba:	80 91 01 01 	lds	r24, 0x0101
     3be:	98 17       	cp	r25, r24
     3c0:	69 f0       	breq	.+26     	; 0x3dc <uart_getc+0x26>
     3c2:	80 91 01 01 	lds	r24, 0x0101
     3c6:	8f 5f       	subi	r24, 0xFF	; 255
     3c8:	8f 71       	andi	r24, 0x1F	; 31
     3ca:	80 93 01 01 	sts	0x0101, r24
     3ce:	e0 91 01 01 	lds	r30, 0x0101
     3d2:	f0 e0       	ldi	r31, 0x00	; 0
     3d4:	ee 5f       	subi	r30, 0xFE	; 254
     3d6:	fe 4f       	sbci	r31, 0xFE	; 254
     3d8:	80 81       	ld	r24, Z
     3da:	08 95       	ret
     3dc:	80 e0       	ldi	r24, 0x00	; 0
     3de:	08 95       	ret

000003e0 <__vector_13>:
     3e0:	1f 92       	push	r1
     3e2:	0f 92       	push	r0
     3e4:	0f b6       	in	r0, 0x3f	; 63
     3e6:	0f 92       	push	r0
     3e8:	11 24       	eor	r1, r1
     3ea:	8f 93       	push	r24
     3ec:	9f 93       	push	r25
     3ee:	ef 93       	push	r30
     3f0:	ff 93       	push	r31
     3f2:	8c b1       	in	r24, 0x0c	; 12
     3f4:	e0 91 00 01 	lds	r30, 0x0100
     3f8:	ef 5f       	subi	r30, 0xFF	; 255
     3fa:	ef 71       	andi	r30, 0x1F	; 31
     3fc:	90 91 01 01 	lds	r25, 0x0101
     400:	e9 17       	cp	r30, r25
     402:	31 f0       	breq	.+12     	; 0x410 <__vector_13+0x30>
     404:	e0 93 00 01 	sts	0x0100, r30
     408:	f0 e0       	ldi	r31, 0x00	; 0
     40a:	ee 5f       	subi	r30, 0xFE	; 254
     40c:	fe 4f       	sbci	r31, 0xFE	; 254
     40e:	80 83       	st	Z, r24
     410:	ff 91       	pop	r31
     412:	ef 91       	pop	r30
     414:	9f 91       	pop	r25
     416:	8f 91       	pop	r24
     418:	0f 90       	pop	r0
     41a:	0f be       	out	0x3f, r0	; 63
     41c:	0f 90       	pop	r0
     41e:	1f 90       	pop	r1
     420:	18 95       	reti

00000422 <data_dir_out>:
     422:	d6 9a       	sbi	0x1a, 6	; 26
     424:	d5 9a       	sbi	0x1a, 5	; 26
     426:	d4 9a       	sbi	0x1a, 4	; 26
     428:	d3 9a       	sbi	0x1a, 3	; 26
     42a:	08 95       	ret

0000042c <lcd_readHalf>:
     42c:	89 b3       	in	r24, 0x19	; 25
     42e:	83 fb       	bst	r24, 3
     430:	88 27       	eor	r24, r24
     432:	80 f9       	bld	r24, 0
     434:	cc 99       	sbic	0x19, 4	; 25
     436:	82 60       	ori	r24, 0x02	; 2
     438:	cd 99       	sbic	0x19, 5	; 25
     43a:	84 60       	ori	r24, 0x04	; 4
     43c:	ce 99       	sbic	0x19, 6	; 25
     43e:	88 60       	ori	r24, 0x08	; 8
     440:	08 95       	ret

00000442 <lcd_sendHalf>:
     442:	80 ff       	sbrs	r24, 0
     444:	02 c0       	rjmp	.+4      	; 0x44a <lcd_sendHalf+0x8>
     446:	db 9a       	sbi	0x1b, 3	; 27
     448:	01 c0       	rjmp	.+2      	; 0x44c <lcd_sendHalf+0xa>
     44a:	db 98       	cbi	0x1b, 3	; 27
     44c:	81 ff       	sbrs	r24, 1
     44e:	02 c0       	rjmp	.+4      	; 0x454 <lcd_sendHalf+0x12>
     450:	dc 9a       	sbi	0x1b, 4	; 27
     452:	01 c0       	rjmp	.+2      	; 0x456 <lcd_sendHalf+0x14>
     454:	dc 98       	cbi	0x1b, 4	; 27
     456:	82 ff       	sbrs	r24, 2
     458:	02 c0       	rjmp	.+4      	; 0x45e <lcd_sendHalf+0x1c>
     45a:	dd 9a       	sbi	0x1b, 5	; 27
     45c:	01 c0       	rjmp	.+2      	; 0x460 <lcd_sendHalf+0x1e>
     45e:	dd 98       	cbi	0x1b, 5	; 27
     460:	83 ff       	sbrs	r24, 3
     462:	02 c0       	rjmp	.+4      	; 0x468 <lcd_sendHalf+0x26>
     464:	de 9a       	sbi	0x1b, 6	; 27
     466:	08 95       	ret
     468:	de 98       	cbi	0x1b, 6	; 27
     46a:	08 95       	ret

0000046c <_lcd_read_byte>:
     46c:	cf 93       	push	r28
     46e:	d6 98       	cbi	0x1a, 6	; 26
     470:	d5 98       	cbi	0x1a, 5	; 26
     472:	d4 98       	cbi	0x1a, 4	; 26
     474:	d3 98       	cbi	0x1a, 3	; 26
     476:	d9 9a       	sbi	0x1b, 1	; 27
     478:	da 9a       	sbi	0x1b, 2	; 27
     47a:	0e 94 16 02 	call	0x42c	; 0x42c <lcd_readHalf>
     47e:	c8 2f       	mov	r28, r24
     480:	c2 95       	swap	r28
     482:	c0 7f       	andi	r28, 0xF0	; 240
     484:	da 98       	cbi	0x1b, 2	; 27
     486:	da 9a       	sbi	0x1b, 2	; 27
     488:	0e 94 16 02 	call	0x42c	; 0x42c <lcd_readHalf>
     48c:	da 98       	cbi	0x1b, 2	; 27
     48e:	8c 2b       	or	r24, r28
     490:	cf 91       	pop	r28
     492:	08 95       	ret

00000494 <check_BF>:
     494:	d8 98       	cbi	0x1b, 0	; 27
     496:	0c 94 36 02 	jmp	0x46c	; 0x46c <_lcd_read_byte>

0000049a <_lcd_write_byte>:
     49a:	cf 93       	push	r28
     49c:	c8 2f       	mov	r28, r24
     49e:	0e 94 11 02 	call	0x422	; 0x422 <data_dir_out>
     4a2:	d9 98       	cbi	0x1b, 1	; 27
     4a4:	da 9a       	sbi	0x1b, 2	; 27
     4a6:	8c 2f       	mov	r24, r28
     4a8:	82 95       	swap	r24
     4aa:	8f 70       	andi	r24, 0x0F	; 15
     4ac:	0e 94 21 02 	call	0x442	; 0x442 <lcd_sendHalf>
     4b0:	da 98       	cbi	0x1b, 2	; 27
     4b2:	da 9a       	sbi	0x1b, 2	; 27
     4b4:	8c 2f       	mov	r24, r28
     4b6:	0e 94 21 02 	call	0x442	; 0x442 <lcd_sendHalf>
     4ba:	da 98       	cbi	0x1b, 2	; 27
     4bc:	0e 94 4a 02 	call	0x494	; 0x494 <check_BF>
     4c0:	87 fd       	sbrc	r24, 7
     4c2:	fc cf       	rjmp	.-8      	; 0x4bc <_lcd_write_byte+0x22>
     4c4:	cf 91       	pop	r28
     4c6:	08 95       	ret

000004c8 <lcd_write_cmd>:
     4c8:	d8 98       	cbi	0x1b, 0	; 27
     4ca:	0c 94 4d 02 	jmp	0x49a	; 0x49a <_lcd_write_byte>

000004ce <lcd_write_data>:
     4ce:	d8 9a       	sbi	0x1b, 0	; 27
     4d0:	0c 94 4d 02 	jmp	0x49a	; 0x49a <_lcd_write_byte>

000004d4 <lcd_char>:
     4d4:	98 2f       	mov	r25, r24
     4d6:	90 58       	subi	r25, 0x80	; 128
     4d8:	98 30       	cpi	r25, 0x08	; 8
     4da:	08 f4       	brcc	.+2      	; 0x4de <lcd_char+0xa>
     4dc:	87 70       	andi	r24, 0x07	; 7
     4de:	0c 94 67 02 	jmp	0x4ce	; 0x4ce <lcd_write_data>

000004e2 <lcd_str>:
     4e2:	cf 93       	push	r28
     4e4:	df 93       	push	r29
     4e6:	ec 01       	movw	r28, r24
     4e8:	02 c0       	rjmp	.+4      	; 0x4ee <lcd_str+0xc>
     4ea:	0e 94 6a 02 	call	0x4d4	; 0x4d4 <lcd_char>
     4ee:	89 91       	ld	r24, Y+
     4f0:	81 11       	cpse	r24, r1
     4f2:	fb cf       	rjmp	.-10     	; 0x4ea <lcd_str+0x8>
     4f4:	df 91       	pop	r29
     4f6:	cf 91       	pop	r28
     4f8:	08 95       	ret

000004fa <lcd_str_P>:
     4fa:	cf 93       	push	r28
     4fc:	df 93       	push	r29
     4fe:	ec 01       	movw	r28, r24
     500:	02 c0       	rjmp	.+4      	; 0x506 <lcd_str_P+0xc>
     502:	0e 94 6a 02 	call	0x4d4	; 0x4d4 <lcd_char>
     506:	fe 01       	movw	r30, r28
     508:	21 96       	adiw	r28, 0x01	; 1
     50a:	84 91       	lpm	r24, Z
     50c:	81 11       	cpse	r24, r1
     50e:	f9 cf       	rjmp	.-14     	; 0x502 <lcd_str_P+0x8>
     510:	df 91       	pop	r29
     512:	cf 91       	pop	r28
     514:	08 95       	ret

00000516 <lcd_str_E>:
     516:	cf 93       	push	r28
     518:	df 93       	push	r29
     51a:	ec 01       	movw	r28, r24
     51c:	21 96       	adiw	r28, 0x01	; 1
     51e:	0e 94 ab 09 	call	0x1356	; 0x1356 <__eerd_byte_m32>
     522:	98 2f       	mov	r25, r24
     524:	91 50       	subi	r25, 0x01	; 1
     526:	9e 3f       	cpi	r25, 0xFE	; 254
     528:	20 f4       	brcc	.+8      	; 0x532 <lcd_str_E+0x1c>
     52a:	0e 94 6a 02 	call	0x4d4	; 0x4d4 <lcd_char>
     52e:	ce 01       	movw	r24, r28
     530:	f4 cf       	rjmp	.-24     	; 0x51a <lcd_str_E+0x4>
     532:	df 91       	pop	r29
     534:	cf 91       	pop	r28
     536:	08 95       	ret

00000538 <lcd_int>:
     538:	cf 93       	push	r28
     53a:	df 93       	push	r29
     53c:	cd b7       	in	r28, 0x3d	; 61
     53e:	de b7       	in	r29, 0x3e	; 62
     540:	61 97       	sbiw	r28, 0x11	; 17
     542:	0f b6       	in	r0, 0x3f	; 63
     544:	f8 94       	cli
     546:	de bf       	out	0x3e, r29	; 62
     548:	0f be       	out	0x3f, r0	; 63
     54a:	cd bf       	out	0x3d, r28	; 61
     54c:	4a e0       	ldi	r20, 0x0A	; 10
     54e:	50 e0       	ldi	r21, 0x00	; 0
     550:	be 01       	movw	r22, r28
     552:	6f 5f       	subi	r22, 0xFF	; 255
     554:	7f 4f       	sbci	r23, 0xFF	; 255
     556:	0e 94 56 09 	call	0x12ac	; 0x12ac <itoa>
     55a:	0e 94 71 02 	call	0x4e2	; 0x4e2 <lcd_str>
     55e:	61 96       	adiw	r28, 0x11	; 17
     560:	0f b6       	in	r0, 0x3f	; 63
     562:	f8 94       	cli
     564:	de bf       	out	0x3e, r29	; 62
     566:	0f be       	out	0x3f, r0	; 63
     568:	cd bf       	out	0x3d, r28	; 61
     56a:	df 91       	pop	r29
     56c:	cf 91       	pop	r28
     56e:	08 95       	ret

00000570 <lcd_hex>:
     570:	cf 93       	push	r28
     572:	df 93       	push	r29
     574:	cd b7       	in	r28, 0x3d	; 61
     576:	de b7       	in	r29, 0x3e	; 62
     578:	61 97       	sbiw	r28, 0x11	; 17
     57a:	0f b6       	in	r0, 0x3f	; 63
     57c:	f8 94       	cli
     57e:	de bf       	out	0x3e, r29	; 62
     580:	0f be       	out	0x3f, r0	; 63
     582:	cd bf       	out	0x3d, r28	; 61
     584:	20 e1       	ldi	r18, 0x10	; 16
     586:	30 e0       	ldi	r19, 0x00	; 0
     588:	ae 01       	movw	r20, r28
     58a:	4f 5f       	subi	r20, 0xFF	; 255
     58c:	5f 4f       	sbci	r21, 0xFF	; 255
     58e:	0e 94 77 09 	call	0x12ee	; 0x12ee <ltoa>
     592:	0e 94 71 02 	call	0x4e2	; 0x4e2 <lcd_str>
     596:	61 96       	adiw	r28, 0x11	; 17
     598:	0f b6       	in	r0, 0x3f	; 63
     59a:	f8 94       	cli
     59c:	de bf       	out	0x3e, r29	; 62
     59e:	0f be       	out	0x3f, r0	; 63
     5a0:	cd bf       	out	0x3d, r28	; 61
     5a2:	df 91       	pop	r29
     5a4:	cf 91       	pop	r28
     5a6:	08 95       	ret

000005a8 <lcd_defchar>:
     5a8:	0f 93       	push	r16
     5aa:	1f 93       	push	r17
     5ac:	cf 93       	push	r28
     5ae:	df 93       	push	r29
     5b0:	eb 01       	movw	r28, r22
     5b2:	87 70       	andi	r24, 0x07	; 7
     5b4:	88 0f       	add	r24, r24
     5b6:	88 0f       	add	r24, r24
     5b8:	88 0f       	add	r24, r24
     5ba:	80 5c       	subi	r24, 0xC0	; 192
     5bc:	0e 94 64 02 	call	0x4c8	; 0x4c8 <lcd_write_cmd>
     5c0:	8e 01       	movw	r16, r28
     5c2:	08 5f       	subi	r16, 0xF8	; 248
     5c4:	1f 4f       	sbci	r17, 0xFF	; 255
     5c6:	89 91       	ld	r24, Y+
     5c8:	0e 94 67 02 	call	0x4ce	; 0x4ce <lcd_write_data>
     5cc:	c0 17       	cp	r28, r16
     5ce:	d1 07       	cpc	r29, r17
     5d0:	d1 f7       	brne	.-12     	; 0x5c6 <lcd_defchar+0x1e>
     5d2:	df 91       	pop	r29
     5d4:	cf 91       	pop	r28
     5d6:	1f 91       	pop	r17
     5d8:	0f 91       	pop	r16
     5da:	08 95       	ret

000005dc <lcd_defchar_P>:
     5dc:	0f 93       	push	r16
     5de:	1f 93       	push	r17
     5e0:	cf 93       	push	r28
     5e2:	df 93       	push	r29
     5e4:	eb 01       	movw	r28, r22
     5e6:	87 70       	andi	r24, 0x07	; 7
     5e8:	88 0f       	add	r24, r24
     5ea:	88 0f       	add	r24, r24
     5ec:	88 0f       	add	r24, r24
     5ee:	80 5c       	subi	r24, 0xC0	; 192
     5f0:	0e 94 64 02 	call	0x4c8	; 0x4c8 <lcd_write_cmd>
     5f4:	8e 01       	movw	r16, r28
     5f6:	08 5f       	subi	r16, 0xF8	; 248
     5f8:	1f 4f       	sbci	r17, 0xFF	; 255
     5fa:	fe 01       	movw	r30, r28
     5fc:	21 96       	adiw	r28, 0x01	; 1
     5fe:	84 91       	lpm	r24, Z
     600:	0e 94 67 02 	call	0x4ce	; 0x4ce <lcd_write_data>
     604:	c0 17       	cp	r28, r16
     606:	d1 07       	cpc	r29, r17
     608:	c1 f7       	brne	.-16     	; 0x5fa <lcd_defchar_P+0x1e>
     60a:	df 91       	pop	r29
     60c:	cf 91       	pop	r28
     60e:	1f 91       	pop	r17
     610:	0f 91       	pop	r16
     612:	08 95       	ret

00000614 <lcd_defchar_E>:
     614:	ef 92       	push	r14
     616:	ff 92       	push	r15
     618:	0f 93       	push	r16
     61a:	1f 93       	push	r17
     61c:	cf 93       	push	r28
     61e:	df 93       	push	r29
     620:	eb 01       	movw	r28, r22
     622:	87 70       	andi	r24, 0x07	; 7
     624:	88 0f       	add	r24, r24
     626:	88 0f       	add	r24, r24
     628:	88 0f       	add	r24, r24
     62a:	80 5c       	subi	r24, 0xC0	; 192
     62c:	0e 94 64 02 	call	0x4c8	; 0x4c8 <lcd_write_cmd>
     630:	8e 01       	movw	r16, r28
     632:	08 5f       	subi	r16, 0xF8	; 248
     634:	1f 4f       	sbci	r17, 0xFF	; 255
     636:	7e 01       	movw	r14, r28
     638:	8f ef       	ldi	r24, 0xFF	; 255
     63a:	e8 1a       	sub	r14, r24
     63c:	f8 0a       	sbc	r15, r24
     63e:	ce 01       	movw	r24, r28
     640:	0e 94 ab 09 	call	0x1356	; 0x1356 <__eerd_byte_m32>
     644:	0e 94 67 02 	call	0x4ce	; 0x4ce <lcd_write_data>
     648:	e7 01       	movw	r28, r14
     64a:	e0 16       	cp	r14, r16
     64c:	f1 06       	cpc	r15, r17
     64e:	99 f7       	brne	.-26     	; 0x636 <lcd_defchar_E+0x22>
     650:	df 91       	pop	r29
     652:	cf 91       	pop	r28
     654:	1f 91       	pop	r17
     656:	0f 91       	pop	r16
     658:	ff 90       	pop	r15
     65a:	ef 90       	pop	r14
     65c:	08 95       	ret

0000065e <lcd_locate>:
     65e:	81 30       	cpi	r24, 0x01	; 1
     660:	09 f4       	brne	.+2      	; 0x664 <lcd_locate+0x6>
     662:	80 e4       	ldi	r24, 0x40	; 64
     664:	60 58       	subi	r22, 0x80	; 128
     666:	86 0f       	add	r24, r22
     668:	0c 94 64 02 	jmp	0x4c8	; 0x4c8 <lcd_write_cmd>

0000066c <lcd_cls>:
     66c:	81 e0       	ldi	r24, 0x01	; 1
     66e:	0c 94 64 02 	jmp	0x4c8	; 0x4c8 <lcd_write_cmd>

00000672 <lcd_init>:
     672:	d7 9a       	sbi	0x1a, 7	; 26
     674:	df 9a       	sbi	0x1b, 7	; 27
     676:	0e 94 11 02 	call	0x422	; 0x422 <data_dir_out>
     67a:	d0 9a       	sbi	0x1a, 0	; 26
     67c:	d2 9a       	sbi	0x1a, 2	; 26
     67e:	d1 9a       	sbi	0x1a, 1	; 26
     680:	d8 9a       	sbi	0x1b, 0	; 27
     682:	da 9a       	sbi	0x1b, 2	; 27
     684:	d9 9a       	sbi	0x1b, 1	; 27
     686:	8f ef       	ldi	r24, 0xFF	; 255
     688:	91 ea       	ldi	r25, 0xA1	; 161
     68a:	01 97       	sbiw	r24, 0x01	; 1
     68c:	f1 f7       	brne	.-4      	; 0x68a <lcd_init+0x18>
     68e:	00 c0       	rjmp	.+0      	; 0x690 <lcd_init+0x1e>
     690:	00 00       	nop
     692:	da 98       	cbi	0x1b, 2	; 27
     694:	d8 98       	cbi	0x1b, 0	; 27
     696:	d9 98       	cbi	0x1b, 1	; 27
     698:	da 9a       	sbi	0x1b, 2	; 27
     69a:	83 e0       	ldi	r24, 0x03	; 3
     69c:	0e 94 21 02 	call	0x442	; 0x442 <lcd_sendHalf>
     6a0:	da 98       	cbi	0x1b, 2	; 27
     6a2:	87 e4       	ldi	r24, 0x47	; 71
     6a4:	9c e2       	ldi	r25, 0x2C	; 44
     6a6:	01 97       	sbiw	r24, 0x01	; 1
     6a8:	f1 f7       	brne	.-4      	; 0x6a6 <lcd_init+0x34>
     6aa:	00 c0       	rjmp	.+0      	; 0x6ac <lcd_init+0x3a>
     6ac:	da 9a       	sbi	0x1b, 2	; 27
     6ae:	83 e0       	ldi	r24, 0x03	; 3
     6b0:	0e 94 21 02 	call	0x442	; 0x442 <lcd_sendHalf>
     6b4:	da 98       	cbi	0x1b, 2	; 27
     6b6:	84 e1       	ldi	r24, 0x14	; 20
     6b8:	91 e0       	ldi	r25, 0x01	; 1
     6ba:	01 97       	sbiw	r24, 0x01	; 1
     6bc:	f1 f7       	brne	.-4      	; 0x6ba <lcd_init+0x48>
     6be:	00 00       	nop
     6c0:	da 9a       	sbi	0x1b, 2	; 27
     6c2:	83 e0       	ldi	r24, 0x03	; 3
     6c4:	0e 94 21 02 	call	0x442	; 0x442 <lcd_sendHalf>
     6c8:	da 98       	cbi	0x1b, 2	; 27
     6ca:	84 e1       	ldi	r24, 0x14	; 20
     6cc:	91 e0       	ldi	r25, 0x01	; 1
     6ce:	01 97       	sbiw	r24, 0x01	; 1
     6d0:	f1 f7       	brne	.-4      	; 0x6ce <lcd_init+0x5c>
     6d2:	00 00       	nop
     6d4:	da 9a       	sbi	0x1b, 2	; 27
     6d6:	82 e0       	ldi	r24, 0x02	; 2
     6d8:	0e 94 21 02 	call	0x442	; 0x442 <lcd_sendHalf>
     6dc:	da 98       	cbi	0x1b, 2	; 27
     6de:	84 e1       	ldi	r24, 0x14	; 20
     6e0:	91 e0       	ldi	r25, 0x01	; 1
     6e2:	01 97       	sbiw	r24, 0x01	; 1
     6e4:	f1 f7       	brne	.-4      	; 0x6e2 <lcd_init+0x70>
     6e6:	00 00       	nop
     6e8:	88 e2       	ldi	r24, 0x28	; 40
     6ea:	0e 94 64 02 	call	0x4c8	; 0x4c8 <lcd_write_cmd>
     6ee:	88 e0       	ldi	r24, 0x08	; 8
     6f0:	0e 94 64 02 	call	0x4c8	; 0x4c8 <lcd_write_cmd>
     6f4:	8c e0       	ldi	r24, 0x0C	; 12
     6f6:	0e 94 64 02 	call	0x4c8	; 0x4c8 <lcd_write_cmd>
     6fa:	86 e0       	ldi	r24, 0x06	; 6
     6fc:	0e 94 64 02 	call	0x4c8	; 0x4c8 <lcd_write_cmd>
     700:	0c 94 36 03 	jmp	0x66c	; 0x66c <lcd_cls>

00000704 <i2cSetBitrate>:
     704:	bc 01       	movw	r22, r24
     706:	83 e3       	ldi	r24, 0x33	; 51
     708:	9b e2       	ldi	r25, 0x2B	; 43
     70a:	0e 94 e5 08 	call	0x11ca	; 0x11ca <__udivmodhi4>
     70e:	86 2f       	mov	r24, r22
     710:	60 31       	cpi	r22, 0x10	; 16
     712:	48 f0       	brcs	.+18     	; 0x726 <i2cSetBitrate+0x22>
     714:	77 27       	eor	r23, r23
     716:	cb 01       	movw	r24, r22
     718:	40 97       	sbiw	r24, 0x10	; 16
     71a:	97 ff       	sbrs	r25, 7
     71c:	02 c0       	rjmp	.+4      	; 0x722 <i2cSetBitrate+0x1e>
     71e:	cb 01       	movw	r24, r22
     720:	0f 97       	sbiw	r24, 0x0f	; 15
     722:	95 95       	asr	r25
     724:	87 95       	ror	r24
     726:	80 b9       	out	0x00, r24	; 0
     728:	08 95       	ret

0000072a <TWI_start>:
     72a:	84 ea       	ldi	r24, 0xA4	; 164
     72c:	86 bf       	out	0x36, r24	; 54
     72e:	06 b6       	in	r0, 0x36	; 54
     730:	07 fe       	sbrs	r0, 7
     732:	fd cf       	rjmp	.-6      	; 0x72e <TWI_start+0x4>
     734:	08 95       	ret

00000736 <TWI_stop>:
     736:	84 e9       	ldi	r24, 0x94	; 148
     738:	86 bf       	out	0x36, r24	; 54
     73a:	06 b6       	in	r0, 0x36	; 54
     73c:	04 fc       	sbrc	r0, 4
     73e:	fd cf       	rjmp	.-6      	; 0x73a <TWI_stop+0x4>
     740:	08 95       	ret

00000742 <TWI_write>:
     742:	83 b9       	out	0x03, r24	; 3
     744:	84 e8       	ldi	r24, 0x84	; 132
     746:	86 bf       	out	0x36, r24	; 54
     748:	06 b6       	in	r0, 0x36	; 54
     74a:	07 fe       	sbrs	r0, 7
     74c:	fd cf       	rjmp	.-6      	; 0x748 <TWI_write+0x6>
     74e:	08 95       	ret

00000750 <TWI_read>:
     750:	20 e4       	ldi	r18, 0x40	; 64
     752:	82 9f       	mul	r24, r18
     754:	c0 01       	movw	r24, r0
     756:	11 24       	eor	r1, r1
     758:	84 68       	ori	r24, 0x84	; 132
     75a:	9f 6f       	ori	r25, 0xFF	; 255
     75c:	86 bf       	out	0x36, r24	; 54
     75e:	06 b6       	in	r0, 0x36	; 54
     760:	07 fe       	sbrs	r0, 7
     762:	fd cf       	rjmp	.-6      	; 0x75e <TWI_read+0xe>
     764:	83 b1       	in	r24, 0x03	; 3
     766:	08 95       	ret

00000768 <TWI_write_buf>:
     768:	ef 92       	push	r14
     76a:	ff 92       	push	r15
     76c:	1f 93       	push	r17
     76e:	cf 93       	push	r28
     770:	df 93       	push	r29
     772:	00 d0       	rcall	.+0      	; 0x774 <TWI_write_buf+0xc>
     774:	00 d0       	rcall	.+0      	; 0x776 <TWI_write_buf+0xe>
     776:	cd b7       	in	r28, 0x3d	; 61
     778:	de b7       	in	r29, 0x3e	; 62
     77a:	14 2f       	mov	r17, r20
     77c:	2b 83       	std	Y+3, r18	; 0x03
     77e:	3c 83       	std	Y+4, r19	; 0x04
     780:	6a 83       	std	Y+2, r22	; 0x02
     782:	89 83       	std	Y+1, r24	; 0x01
     784:	0e 94 95 03 	call	0x72a	; 0x72a <TWI_start>
     788:	89 81       	ldd	r24, Y+1	; 0x01
     78a:	0e 94 a1 03 	call	0x742	; 0x742 <TWI_write>
     78e:	6a 81       	ldd	r22, Y+2	; 0x02
     790:	86 2f       	mov	r24, r22
     792:	0e 94 a1 03 	call	0x742	; 0x742 <TWI_write>
     796:	2b 81       	ldd	r18, Y+3	; 0x03
     798:	e2 2e       	mov	r14, r18
     79a:	3c 81       	ldd	r19, Y+4	; 0x04
     79c:	f3 2e       	mov	r15, r19
     79e:	12 0f       	add	r17, r18
     7a0:	05 c0       	rjmp	.+10     	; 0x7ac <TWI_write_buf+0x44>
     7a2:	f7 01       	movw	r30, r14
     7a4:	81 91       	ld	r24, Z+
     7a6:	7f 01       	movw	r14, r30
     7a8:	0e 94 a1 03 	call	0x742	; 0x742 <TWI_write>
     7ac:	1e 11       	cpse	r17, r14
     7ae:	f9 cf       	rjmp	.-14     	; 0x7a2 <TWI_write_buf+0x3a>
     7b0:	0f 90       	pop	r0
     7b2:	0f 90       	pop	r0
     7b4:	0f 90       	pop	r0
     7b6:	0f 90       	pop	r0
     7b8:	df 91       	pop	r29
     7ba:	cf 91       	pop	r28
     7bc:	1f 91       	pop	r17
     7be:	ff 90       	pop	r15
     7c0:	ef 90       	pop	r14
     7c2:	0c 94 9b 03 	jmp	0x736	; 0x736 <TWI_stop>

000007c6 <TWI_read_buf>:
     7c6:	ef 92       	push	r14
     7c8:	ff 92       	push	r15
     7ca:	0f 93       	push	r16
     7cc:	1f 93       	push	r17
     7ce:	cf 93       	push	r28
     7d0:	df 93       	push	r29
     7d2:	1f 92       	push	r1
     7d4:	cd b7       	in	r28, 0x3d	; 61
     7d6:	de b7       	in	r29, 0x3e	; 62
     7d8:	08 2f       	mov	r16, r24
     7da:	14 2f       	mov	r17, r20
     7dc:	79 01       	movw	r14, r18
     7de:	69 83       	std	Y+1, r22	; 0x01
     7e0:	0e 94 95 03 	call	0x72a	; 0x72a <TWI_start>
     7e4:	80 2f       	mov	r24, r16
     7e6:	0e 94 a1 03 	call	0x742	; 0x742 <TWI_write>
     7ea:	69 81       	ldd	r22, Y+1	; 0x01
     7ec:	86 2f       	mov	r24, r22
     7ee:	0e 94 a1 03 	call	0x742	; 0x742 <TWI_write>
     7f2:	0e 94 95 03 	call	0x72a	; 0x72a <TWI_start>
     7f6:	80 2f       	mov	r24, r16
     7f8:	8f 5f       	subi	r24, 0xFF	; 255
     7fa:	0e 94 a1 03 	call	0x742	; 0x742 <TWI_write>
     7fe:	09 c0       	rjmp	.+18     	; 0x812 <TWI_read_buf+0x4c>
     800:	81 e0       	ldi	r24, 0x01	; 1
     802:	11 11       	cpse	r17, r1
     804:	01 c0       	rjmp	.+2      	; 0x808 <TWI_read_buf+0x42>
     806:	80 e0       	ldi	r24, 0x00	; 0
     808:	0e 94 a8 03 	call	0x750	; 0x750 <TWI_read>
     80c:	f7 01       	movw	r30, r14
     80e:	81 93       	st	Z+, r24
     810:	7f 01       	movw	r14, r30
     812:	11 50       	subi	r17, 0x01	; 1
     814:	a8 f7       	brcc	.-22     	; 0x800 <TWI_read_buf+0x3a>
     816:	0f 90       	pop	r0
     818:	df 91       	pop	r29
     81a:	cf 91       	pop	r28
     81c:	1f 91       	pop	r17
     81e:	0f 91       	pop	r16
     820:	ff 90       	pop	r15
     822:	ef 90       	pop	r14
     824:	0c 94 9b 03 	jmp	0x736	; 0x736 <TWI_stop>

00000828 <HTU21_init>:
     828:	0e 94 95 03 	call	0x72a	; 0x72a <TWI_start>
     82c:	80 e8       	ldi	r24, 0x80	; 128
     82e:	0e 94 a1 03 	call	0x742	; 0x742 <TWI_write>
     832:	8e ef       	ldi	r24, 0xFE	; 254
     834:	0e 94 a1 03 	call	0x742	; 0x742 <TWI_write>
     838:	0c 94 9b 03 	jmp	0x736	; 0x736 <TWI_stop>

0000083c <HTU21_read_temp>:
     83c:	1f 93       	push	r17
     83e:	cf 93       	push	r28
     840:	df 93       	push	r29
     842:	18 2f       	mov	r17, r24
     844:	eb 01       	movw	r28, r22
     846:	0e 94 95 03 	call	0x72a	; 0x72a <TWI_start>
     84a:	80 e8       	ldi	r24, 0x80	; 128
     84c:	0e 94 a1 03 	call	0x742	; 0x742 <TWI_write>
     850:	83 ee       	ldi	r24, 0xE3	; 227
     852:	0e 94 a1 03 	call	0x742	; 0x742 <TWI_write>
     856:	0e 94 9b 03 	call	0x736	; 0x736 <TWI_stop>
     85a:	0e 94 95 03 	call	0x72a	; 0x72a <TWI_start>
     85e:	81 e8       	ldi	r24, 0x81	; 129
     860:	0e 94 a1 03 	call	0x742	; 0x742 <TWI_write>
     864:	22 e3       	ldi	r18, 0x32	; 50
     866:	8b ed       	ldi	r24, 0xDB	; 219
     868:	91 e0       	ldi	r25, 0x01	; 1
     86a:	21 50       	subi	r18, 0x01	; 1
     86c:	80 40       	sbci	r24, 0x00	; 0
     86e:	90 40       	sbci	r25, 0x00	; 0
     870:	e1 f7       	brne	.-8      	; 0x86a <__stack+0xb>
     872:	00 c0       	rjmp	.+0      	; 0x874 <__stack+0x15>
     874:	00 c0       	rjmp	.+0      	; 0x876 <__stack+0x17>
     876:	07 c0       	rjmp	.+14     	; 0x886 <__stack+0x27>
     878:	81 e0       	ldi	r24, 0x01	; 1
     87a:	11 11       	cpse	r17, r1
     87c:	01 c0       	rjmp	.+2      	; 0x880 <__stack+0x21>
     87e:	80 e0       	ldi	r24, 0x00	; 0
     880:	0e 94 a8 03 	call	0x750	; 0x750 <TWI_read>
     884:	89 93       	st	Y+, r24
     886:	11 50       	subi	r17, 0x01	; 1
     888:	b8 f7       	brcc	.-18     	; 0x878 <__stack+0x19>
     88a:	df 91       	pop	r29
     88c:	cf 91       	pop	r28
     88e:	1f 91       	pop	r17
     890:	0c 94 9b 03 	jmp	0x736	; 0x736 <TWI_stop>

00000894 <HTU21_read_humid>:
     894:	1f 93       	push	r17
     896:	cf 93       	push	r28
     898:	df 93       	push	r29
     89a:	18 2f       	mov	r17, r24
     89c:	eb 01       	movw	r28, r22
     89e:	0e 94 95 03 	call	0x72a	; 0x72a <TWI_start>
     8a2:	80 e8       	ldi	r24, 0x80	; 128
     8a4:	0e 94 a1 03 	call	0x742	; 0x742 <TWI_write>
     8a8:	85 ee       	ldi	r24, 0xE5	; 229
     8aa:	0e 94 a1 03 	call	0x742	; 0x742 <TWI_write>
     8ae:	0e 94 9b 03 	call	0x736	; 0x736 <TWI_stop>
     8b2:	0e 94 95 03 	call	0x72a	; 0x72a <TWI_start>
     8b6:	81 e8       	ldi	r24, 0x81	; 129
     8b8:	0e 94 a1 03 	call	0x742	; 0x742 <TWI_write>
     8bc:	22 e3       	ldi	r18, 0x32	; 50
     8be:	8b ed       	ldi	r24, 0xDB	; 219
     8c0:	91 e0       	ldi	r25, 0x01	; 1
     8c2:	21 50       	subi	r18, 0x01	; 1
     8c4:	80 40       	sbci	r24, 0x00	; 0
     8c6:	90 40       	sbci	r25, 0x00	; 0
     8c8:	e1 f7       	brne	.-8      	; 0x8c2 <HTU21_read_humid+0x2e>
     8ca:	00 c0       	rjmp	.+0      	; 0x8cc <HTU21_read_humid+0x38>
     8cc:	00 c0       	rjmp	.+0      	; 0x8ce <HTU21_read_humid+0x3a>
     8ce:	07 c0       	rjmp	.+14     	; 0x8de <HTU21_read_humid+0x4a>
     8d0:	81 e0       	ldi	r24, 0x01	; 1
     8d2:	11 11       	cpse	r17, r1
     8d4:	01 c0       	rjmp	.+2      	; 0x8d8 <HTU21_read_humid+0x44>
     8d6:	80 e0       	ldi	r24, 0x00	; 0
     8d8:	0e 94 a8 03 	call	0x750	; 0x750 <TWI_read>
     8dc:	89 93       	st	Y+, r24
     8de:	11 50       	subi	r17, 0x01	; 1
     8e0:	b8 f7       	brcc	.-18     	; 0x8d0 <HTU21_read_humid+0x3c>
     8e2:	df 91       	pop	r29
     8e4:	cf 91       	pop	r28
     8e6:	1f 91       	pop	r17
     8e8:	0c 94 9b 03 	jmp	0x736	; 0x736 <TWI_stop>

000008ec <BMP180_init>:
     8ec:	cf 93       	push	r28
     8ee:	df 93       	push	r29
     8f0:	cd b7       	in	r28, 0x3d	; 61
     8f2:	de b7       	in	r29, 0x3e	; 62
     8f4:	66 97       	sbiw	r28, 0x16	; 22
     8f6:	0f b6       	in	r0, 0x3f	; 63
     8f8:	f8 94       	cli
     8fa:	de bf       	out	0x3e, r29	; 62
     8fc:	0f be       	out	0x3f, r0	; 63
     8fe:	cd bf       	out	0x3d, r28	; 61
     900:	9e 01       	movw	r18, r28
     902:	2f 5f       	subi	r18, 0xFF	; 255
     904:	3f 4f       	sbci	r19, 0xFF	; 255
     906:	46 e1       	ldi	r20, 0x16	; 22
     908:	6a ea       	ldi	r22, 0xAA	; 170
     90a:	8e ee       	ldi	r24, 0xEE	; 238
     90c:	0e 94 e3 03 	call	0x7c6	; 0x7c6 <TWI_read_buf>
     910:	99 81       	ldd	r25, Y+1	; 0x01
     912:	80 e0       	ldi	r24, 0x00	; 0
     914:	2a 81       	ldd	r18, Y+2	; 0x02
     916:	82 2b       	or	r24, r18
     918:	90 93 2d 01 	sts	0x012D, r25
     91c:	80 93 2c 01 	sts	0x012C, r24
     920:	9b 81       	ldd	r25, Y+3	; 0x03
     922:	80 e0       	ldi	r24, 0x00	; 0
     924:	2c 81       	ldd	r18, Y+4	; 0x04
     926:	82 2b       	or	r24, r18
     928:	90 93 3f 01 	sts	0x013F, r25
     92c:	80 93 3e 01 	sts	0x013E, r24
     930:	9d 81       	ldd	r25, Y+5	; 0x05
     932:	80 e0       	ldi	r24, 0x00	; 0
     934:	2e 81       	ldd	r18, Y+6	; 0x06
     936:	82 2b       	or	r24, r18
     938:	90 93 41 01 	sts	0x0141, r25
     93c:	80 93 40 01 	sts	0x0140, r24
     940:	9f 81       	ldd	r25, Y+7	; 0x07
     942:	80 e0       	ldi	r24, 0x00	; 0
     944:	28 85       	ldd	r18, Y+8	; 0x08
     946:	82 2b       	or	r24, r18
     948:	90 93 3b 01 	sts	0x013B, r25
     94c:	80 93 3a 01 	sts	0x013A, r24
     950:	99 85       	ldd	r25, Y+9	; 0x09
     952:	80 e0       	ldi	r24, 0x00	; 0
     954:	2a 85       	ldd	r18, Y+10	; 0x0a
     956:	82 2b       	or	r24, r18
     958:	90 93 35 01 	sts	0x0135, r25
     95c:	80 93 34 01 	sts	0x0134, r24
     960:	9b 85       	ldd	r25, Y+11	; 0x0b
     962:	80 e0       	ldi	r24, 0x00	; 0
     964:	2c 85       	ldd	r18, Y+12	; 0x0c
     966:	82 2b       	or	r24, r18
     968:	90 93 2f 01 	sts	0x012F, r25
     96c:	80 93 2e 01 	sts	0x012E, r24
     970:	9d 85       	ldd	r25, Y+13	; 0x0d
     972:	80 e0       	ldi	r24, 0x00	; 0
     974:	2e 85       	ldd	r18, Y+14	; 0x0e
     976:	82 2b       	or	r24, r18
     978:	90 93 49 01 	sts	0x0149, r25
     97c:	80 93 48 01 	sts	0x0148, r24
     980:	9f 85       	ldd	r25, Y+15	; 0x0f
     982:	80 e0       	ldi	r24, 0x00	; 0
     984:	28 89       	ldd	r18, Y+16	; 0x10
     986:	82 2b       	or	r24, r18
     988:	90 93 43 01 	sts	0x0143, r25
     98c:	80 93 42 01 	sts	0x0142, r24
     990:	99 89       	ldd	r25, Y+17	; 0x11
     992:	80 e0       	ldi	r24, 0x00	; 0
     994:	2a 89       	ldd	r18, Y+18	; 0x12
     996:	82 2b       	or	r24, r18
     998:	90 93 3d 01 	sts	0x013D, r25
     99c:	80 93 3c 01 	sts	0x013C, r24
     9a0:	9b 89       	ldd	r25, Y+19	; 0x13
     9a2:	80 e0       	ldi	r24, 0x00	; 0
     9a4:	2c 89       	ldd	r18, Y+20	; 0x14
     9a6:	82 2b       	or	r24, r18
     9a8:	90 93 4b 01 	sts	0x014B, r25
     9ac:	80 93 4a 01 	sts	0x014A, r24
     9b0:	9d 89       	ldd	r25, Y+21	; 0x15
     9b2:	80 e0       	ldi	r24, 0x00	; 0
     9b4:	2e 89       	ldd	r18, Y+22	; 0x16
     9b6:	82 2b       	or	r24, r18
     9b8:	90 93 2b 01 	sts	0x012B, r25
     9bc:	80 93 2a 01 	sts	0x012A, r24
     9c0:	66 96       	adiw	r28, 0x16	; 22
     9c2:	0f b6       	in	r0, 0x3f	; 63
     9c4:	f8 94       	cli
     9c6:	de bf       	out	0x3e, r29	; 62
     9c8:	0f be       	out	0x3f, r0	; 63
     9ca:	cd bf       	out	0x3d, r28	; 61
     9cc:	df 91       	pop	r29
     9ce:	cf 91       	pop	r28
     9d0:	08 95       	ret

000009d2 <BMP180_getut>:
     9d2:	cf 93       	push	r28
     9d4:	df 93       	push	r29
     9d6:	00 d0       	rcall	.+0      	; 0x9d8 <BMP180_getut+0x6>
     9d8:	1f 92       	push	r1
     9da:	cd b7       	in	r28, 0x3d	; 61
     9dc:	de b7       	in	r29, 0x3e	; 62
     9de:	8e e2       	ldi	r24, 0x2E	; 46
     9e0:	8b 83       	std	Y+3, r24	; 0x03
     9e2:	9e 01       	movw	r18, r28
     9e4:	2d 5f       	subi	r18, 0xFD	; 253
     9e6:	3f 4f       	sbci	r19, 0xFF	; 255
     9e8:	41 e0       	ldi	r20, 0x01	; 1
     9ea:	64 ef       	ldi	r22, 0xF4	; 244
     9ec:	8e ee       	ldi	r24, 0xEE	; 238
     9ee:	0e 94 b4 03 	call	0x768	; 0x768 <TWI_write_buf>
     9f2:	8f ef       	ldi	r24, 0xFF	; 255
     9f4:	95 e3       	ldi	r25, 0x35	; 53
     9f6:	01 97       	sbiw	r24, 0x01	; 1
     9f8:	f1 f7       	brne	.-4      	; 0x9f6 <BMP180_getut+0x24>
     9fa:	00 c0       	rjmp	.+0      	; 0x9fc <BMP180_getut+0x2a>
     9fc:	00 00       	nop
     9fe:	9e 01       	movw	r18, r28
     a00:	2f 5f       	subi	r18, 0xFF	; 255
     a02:	3f 4f       	sbci	r19, 0xFF	; 255
     a04:	42 e0       	ldi	r20, 0x02	; 2
     a06:	66 ef       	ldi	r22, 0xF6	; 246
     a08:	8e ee       	ldi	r24, 0xEE	; 238
     a0a:	0e 94 e3 03 	call	0x7c6	; 0x7c6 <TWI_read_buf>
     a0e:	89 81       	ldd	r24, Y+1	; 0x01
     a10:	90 e0       	ldi	r25, 0x00	; 0
     a12:	a0 e0       	ldi	r26, 0x00	; 0
     a14:	b0 e0       	ldi	r27, 0x00	; 0
     a16:	ba 2f       	mov	r27, r26
     a18:	a9 2f       	mov	r26, r25
     a1a:	98 2f       	mov	r25, r24
     a1c:	88 27       	eor	r24, r24
     a1e:	2a 81       	ldd	r18, Y+2	; 0x02
     a20:	82 2b       	or	r24, r18
     a22:	80 93 44 01 	sts	0x0144, r24
     a26:	90 93 45 01 	sts	0x0145, r25
     a2a:	a0 93 46 01 	sts	0x0146, r26
     a2e:	b0 93 47 01 	sts	0x0147, r27
     a32:	0f 90       	pop	r0
     a34:	0f 90       	pop	r0
     a36:	0f 90       	pop	r0
     a38:	df 91       	pop	r29
     a3a:	cf 91       	pop	r28
     a3c:	08 95       	ret

00000a3e <BMP180_getup>:
     a3e:	cf 93       	push	r28
     a40:	df 93       	push	r29
     a42:	00 d0       	rcall	.+0      	; 0xa44 <BMP180_getup+0x6>
     a44:	00 d0       	rcall	.+0      	; 0xa46 <BMP180_getup+0x8>
     a46:	cd b7       	in	r28, 0x3d	; 61
     a48:	de b7       	in	r29, 0x3e	; 62
     a4a:	84 ef       	ldi	r24, 0xF4	; 244
     a4c:	8c 83       	std	Y+4, r24	; 0x04
     a4e:	9e 01       	movw	r18, r28
     a50:	2c 5f       	subi	r18, 0xFC	; 252
     a52:	3f 4f       	sbci	r19, 0xFF	; 255
     a54:	41 e0       	ldi	r20, 0x01	; 1
     a56:	64 ef       	ldi	r22, 0xF4	; 244
     a58:	8e ee       	ldi	r24, 0xEE	; 238
     a5a:	0e 94 b4 03 	call	0x768	; 0x768 <TWI_write_buf>
     a5e:	23 ea       	ldi	r18, 0xA3	; 163
     a60:	80 ee       	ldi	r24, 0xE0	; 224
     a62:	90 e0       	ldi	r25, 0x00	; 0
     a64:	21 50       	subi	r18, 0x01	; 1
     a66:	80 40       	sbci	r24, 0x00	; 0
     a68:	90 40       	sbci	r25, 0x00	; 0
     a6a:	e1 f7       	brne	.-8      	; 0xa64 <BMP180_getup+0x26>
     a6c:	00 c0       	rjmp	.+0      	; 0xa6e <BMP180_getup+0x30>
     a6e:	00 00       	nop
     a70:	9e 01       	movw	r18, r28
     a72:	2f 5f       	subi	r18, 0xFF	; 255
     a74:	3f 4f       	sbci	r19, 0xFF	; 255
     a76:	43 e0       	ldi	r20, 0x03	; 3
     a78:	66 ef       	ldi	r22, 0xF6	; 246
     a7a:	8e ee       	ldi	r24, 0xEE	; 238
     a7c:	0e 94 e3 03 	call	0x7c6	; 0x7c6 <TWI_read_buf>
     a80:	29 81       	ldd	r18, Y+1	; 0x01
     a82:	8a 81       	ldd	r24, Y+2	; 0x02
     a84:	90 e0       	ldi	r25, 0x00	; 0
     a86:	a0 e0       	ldi	r26, 0x00	; 0
     a88:	b0 e0       	ldi	r27, 0x00	; 0
     a8a:	ba 2f       	mov	r27, r26
     a8c:	a9 2f       	mov	r26, r25
     a8e:	98 2f       	mov	r25, r24
     a90:	88 27       	eor	r24, r24
     a92:	a2 2b       	or	r26, r18
     a94:	2b 81       	ldd	r18, Y+3	; 0x03
     a96:	82 2b       	or	r24, r18
     a98:	45 e0       	ldi	r20, 0x05	; 5
     a9a:	b5 95       	asr	r27
     a9c:	a7 95       	ror	r26
     a9e:	97 95       	ror	r25
     aa0:	87 95       	ror	r24
     aa2:	4a 95       	dec	r20
     aa4:	d1 f7       	brne	.-12     	; 0xa9a <BMP180_getup+0x5c>
     aa6:	80 93 30 01 	sts	0x0130, r24
     aaa:	90 93 31 01 	sts	0x0131, r25
     aae:	a0 93 32 01 	sts	0x0132, r26
     ab2:	b0 93 33 01 	sts	0x0133, r27
     ab6:	0f 90       	pop	r0
     ab8:	0f 90       	pop	r0
     aba:	0f 90       	pop	r0
     abc:	0f 90       	pop	r0
     abe:	df 91       	pop	r29
     ac0:	cf 91       	pop	r28
     ac2:	08 95       	ret

00000ac4 <BMP180_gett>:
     ac4:	cf 92       	push	r12
     ac6:	df 92       	push	r13
     ac8:	ef 92       	push	r14
     aca:	ff 92       	push	r15
     acc:	0f 93       	push	r16
     ace:	1f 93       	push	r17
     ad0:	0e 94 e9 04 	call	0x9d2	; 0x9d2 <BMP180_getut>
     ad4:	80 91 2e 01 	lds	r24, 0x012E
     ad8:	90 91 2f 01 	lds	r25, 0x012F
     adc:	20 91 44 01 	lds	r18, 0x0144
     ae0:	30 91 45 01 	lds	r19, 0x0145
     ae4:	40 91 46 01 	lds	r20, 0x0146
     ae8:	50 91 47 01 	lds	r21, 0x0147
     aec:	28 1b       	sub	r18, r24
     aee:	39 0b       	sbc	r19, r25
     af0:	41 09       	sbc	r20, r1
     af2:	51 09       	sbc	r21, r1
     af4:	a0 91 34 01 	lds	r26, 0x0134
     af8:	b0 91 35 01 	lds	r27, 0x0135
     afc:	0e 94 43 09 	call	0x1286	; 0x1286 <__muluhisi3>
     b00:	6b 01       	movw	r12, r22
     b02:	7c 01       	movw	r14, r24
     b04:	5f e0       	ldi	r21, 0x0F	; 15
     b06:	f5 94       	asr	r15
     b08:	e7 94       	ror	r14
     b0a:	d7 94       	ror	r13
     b0c:	c7 94       	ror	r12
     b0e:	5a 95       	dec	r21
     b10:	d1 f7       	brne	.-12     	; 0xb06 <BMP180_gett+0x42>
     b12:	60 91 4a 01 	lds	r22, 0x014A
     b16:	70 91 4b 01 	lds	r23, 0x014B
     b1a:	88 27       	eor	r24, r24
     b1c:	77 fd       	sbrc	r23, 7
     b1e:	80 95       	com	r24
     b20:	98 2f       	mov	r25, r24
     b22:	eb e0       	ldi	r30, 0x0B	; 11
     b24:	66 0f       	add	r22, r22
     b26:	77 1f       	adc	r23, r23
     b28:	88 1f       	adc	r24, r24
     b2a:	99 1f       	adc	r25, r25
     b2c:	ea 95       	dec	r30
     b2e:	d1 f7       	brne	.-12     	; 0xb24 <BMP180_gett+0x60>
     b30:	20 91 2a 01 	lds	r18, 0x012A
     b34:	30 91 2b 01 	lds	r19, 0x012B
     b38:	44 27       	eor	r20, r20
     b3a:	37 fd       	sbrc	r19, 7
     b3c:	40 95       	com	r20
     b3e:	54 2f       	mov	r21, r20
     b40:	2c 0d       	add	r18, r12
     b42:	3d 1d       	adc	r19, r13
     b44:	4e 1d       	adc	r20, r14
     b46:	5f 1d       	adc	r21, r15
     b48:	0e 94 1b 09 	call	0x1236	; 0x1236 <__divmodsi4>
     b4c:	2c 0d       	add	r18, r12
     b4e:	3d 1d       	adc	r19, r13
     b50:	4e 1d       	adc	r20, r14
     b52:	5f 1d       	adc	r21, r15
     b54:	20 93 36 01 	sts	0x0136, r18
     b58:	30 93 37 01 	sts	0x0137, r19
     b5c:	40 93 38 01 	sts	0x0138, r20
     b60:	50 93 39 01 	sts	0x0139, r21
     b64:	89 01       	movw	r16, r18
     b66:	9a 01       	movw	r18, r20
     b68:	08 5f       	subi	r16, 0xF8	; 248
     b6a:	1f 4f       	sbci	r17, 0xFF	; 255
     b6c:	2f 4f       	sbci	r18, 0xFF	; 255
     b6e:	3f 4f       	sbci	r19, 0xFF	; 255
     b70:	f4 e0       	ldi	r31, 0x04	; 4
     b72:	35 95       	asr	r19
     b74:	27 95       	ror	r18
     b76:	17 95       	ror	r17
     b78:	07 95       	ror	r16
     b7a:	fa 95       	dec	r31
     b7c:	d1 f7       	brne	.-12     	; 0xb72 <BMP180_gett+0xae>
     b7e:	b8 01       	movw	r22, r16
     b80:	c9 01       	movw	r24, r18
     b82:	1f 91       	pop	r17
     b84:	0f 91       	pop	r16
     b86:	ff 90       	pop	r15
     b88:	ef 90       	pop	r14
     b8a:	df 90       	pop	r13
     b8c:	cf 90       	pop	r12
     b8e:	08 95       	ret

00000b90 <BMP180_getp>:
     b90:	4f 92       	push	r4
     b92:	5f 92       	push	r5
     b94:	6f 92       	push	r6
     b96:	7f 92       	push	r7
     b98:	8f 92       	push	r8
     b9a:	9f 92       	push	r9
     b9c:	af 92       	push	r10
     b9e:	bf 92       	push	r11
     ba0:	cf 92       	push	r12
     ba2:	df 92       	push	r13
     ba4:	ef 92       	push	r14
     ba6:	ff 92       	push	r15
     ba8:	0f 93       	push	r16
     baa:	1f 93       	push	r17
     bac:	cf 93       	push	r28
     bae:	df 93       	push	r29
     bb0:	00 d0       	rcall	.+0      	; 0xbb2 <BMP180_getp+0x22>
     bb2:	00 d0       	rcall	.+0      	; 0xbb4 <BMP180_getp+0x24>
     bb4:	cd b7       	in	r28, 0x3d	; 61
     bb6:	de b7       	in	r29, 0x3e	; 62
     bb8:	0e 94 1f 05 	call	0xa3e	; 0xa3e <BMP180_getup>
     bbc:	80 90 36 01 	lds	r8, 0x0136
     bc0:	90 90 37 01 	lds	r9, 0x0137
     bc4:	a0 90 38 01 	lds	r10, 0x0138
     bc8:	b0 90 39 01 	lds	r11, 0x0139
     bcc:	80 ea       	ldi	r24, 0xA0	; 160
     bce:	88 1a       	sub	r8, r24
     bd0:	8f e0       	ldi	r24, 0x0F	; 15
     bd2:	98 0a       	sbc	r9, r24
     bd4:	a1 08       	sbc	r10, r1
     bd6:	b1 08       	sbc	r11, r1
     bd8:	a5 01       	movw	r20, r10
     bda:	94 01       	movw	r18, r8
     bdc:	c5 01       	movw	r24, r10
     bde:	b4 01       	movw	r22, r8
     be0:	0e 94 d5 08 	call	0x11aa	; 0x11aa <__mulsi3>
     be4:	2b 01       	movw	r4, r22
     be6:	3c 01       	movw	r6, r24
     be8:	00 91 2c 01 	lds	r16, 0x012C
     bec:	10 91 2d 01 	lds	r17, 0x012D
     bf0:	a0 91 40 01 	lds	r26, 0x0140
     bf4:	b0 91 41 01 	lds	r27, 0x0141
     bf8:	0e 94 4e 09 	call	0x129c	; 0x129c <__mulshisi3>
     bfc:	6b 01       	movw	r12, r22
     bfe:	7c 01       	movw	r14, r24
     c00:	3d e0       	ldi	r19, 0x0D	; 13
     c02:	f5 94       	asr	r15
     c04:	e7 94       	ror	r14
     c06:	d7 94       	ror	r13
     c08:	c7 94       	ror	r12
     c0a:	3a 95       	dec	r19
     c0c:	d1 f7       	brne	.-12     	; 0xc02 <BMP180_getp+0x72>
     c0e:	a0 91 48 01 	lds	r26, 0x0148
     c12:	b0 91 49 01 	lds	r27, 0x0149
     c16:	a3 01       	movw	r20, r6
     c18:	92 01       	movw	r18, r4
     c1a:	6c e0       	ldi	r22, 0x0C	; 12
     c1c:	55 95       	asr	r21
     c1e:	47 95       	ror	r20
     c20:	37 95       	ror	r19
     c22:	27 95       	ror	r18
     c24:	6a 95       	dec	r22
     c26:	d1 f7       	brne	.-12     	; 0xc1c <BMP180_getp+0x8c>
     c28:	0e 94 4e 09 	call	0x129c	; 0x129c <__mulshisi3>
     c2c:	bb 27       	eor	r27, r27
     c2e:	97 fd       	sbrc	r25, 7
     c30:	b0 95       	com	r27
     c32:	ab 2f       	mov	r26, r27
     c34:	c8 0e       	add	r12, r24
     c36:	d9 1e       	adc	r13, r25
     c38:	ea 1e       	adc	r14, r26
     c3a:	fb 1e       	adc	r15, r27
     c3c:	92 e0       	ldi	r25, 0x02	; 2
     c3e:	c9 0e       	add	r12, r25
     c40:	d1 1c       	adc	r13, r1
     c42:	e1 1c       	adc	r14, r1
     c44:	f1 1c       	adc	r15, r1
     c46:	f2 e0       	ldi	r31, 0x02	; 2
     c48:	f5 94       	asr	r15
     c4a:	e7 94       	ror	r14
     c4c:	d7 94       	ror	r13
     c4e:	c7 94       	ror	r12
     c50:	fa 95       	dec	r31
     c52:	d1 f7       	brne	.-12     	; 0xc48 <BMP180_getp+0xb8>
     c54:	a0 e8       	ldi	r26, 0x80	; 128
     c56:	da 0e       	add	r13, r26
     c58:	e1 1c       	adc	r14, r1
     c5a:	f1 1c       	adc	r15, r1
     c5c:	a0 91 3a 01 	lds	r26, 0x013A
     c60:	b0 91 3b 01 	lds	r27, 0x013B
     c64:	a7 01       	movw	r20, r14
     c66:	96 01       	movw	r18, r12
     c68:	0e 94 43 09 	call	0x1286	; 0x1286 <__muluhisi3>
     c6c:	dc 01       	movw	r26, r24
     c6e:	cb 01       	movw	r24, r22
     c70:	2f e0       	ldi	r18, 0x0F	; 15
     c72:	b6 95       	lsr	r27
     c74:	a7 95       	ror	r26
     c76:	97 95       	ror	r25
     c78:	87 95       	ror	r24
     c7a:	2a 95       	dec	r18
     c7c:	d1 f7       	brne	.-12     	; 0xc72 <BMP180_getp+0xe2>
     c7e:	89 83       	std	Y+1, r24	; 0x01
     c80:	9a 83       	std	Y+2, r25	; 0x02
     c82:	ab 83       	std	Y+3, r26	; 0x03
     c84:	bc 83       	std	Y+4, r27	; 0x04
     c86:	68 01       	movw	r12, r16
     c88:	ee 24       	eor	r14, r14
     c8a:	d7 fc       	sbrc	r13, 7
     c8c:	e0 94       	com	r14
     c8e:	fe 2c       	mov	r15, r14
     c90:	32 e0       	ldi	r19, 0x02	; 2
     c92:	cc 0c       	add	r12, r12
     c94:	dd 1c       	adc	r13, r13
     c96:	ee 1c       	adc	r14, r14
     c98:	ff 1c       	adc	r15, r15
     c9a:	3a 95       	dec	r19
     c9c:	d1 f7       	brne	.-12     	; 0xc92 <BMP180_getp+0x102>
     c9e:	a0 91 42 01 	lds	r26, 0x0142
     ca2:	b0 91 43 01 	lds	r27, 0x0143
     ca6:	a3 01       	movw	r20, r6
     ca8:	92 01       	movw	r18, r4
     caa:	0e 94 4e 09 	call	0x129c	; 0x129c <__mulshisi3>
     cae:	2b 01       	movw	r4, r22
     cb0:	3c 01       	movw	r6, r24
     cb2:	47 e1       	ldi	r20, 0x17	; 23
     cb4:	75 94       	asr	r7
     cb6:	67 94       	ror	r6
     cb8:	57 94       	ror	r5
     cba:	47 94       	ror	r4
     cbc:	4a 95       	dec	r20
     cbe:	d1 f7       	brne	.-12     	; 0xcb4 <BMP180_getp+0x124>
     cc0:	a0 91 3e 01 	lds	r26, 0x013E
     cc4:	b0 91 3f 01 	lds	r27, 0x013F
     cc8:	a5 01       	movw	r20, r10
     cca:	94 01       	movw	r18, r8
     ccc:	0e 94 4e 09 	call	0x129c	; 0x129c <__mulshisi3>
     cd0:	5b e0       	ldi	r21, 0x0B	; 11
     cd2:	95 95       	asr	r25
     cd4:	87 95       	ror	r24
     cd6:	77 95       	ror	r23
     cd8:	67 95       	ror	r22
     cda:	5a 95       	dec	r21
     cdc:	d1 f7       	brne	.-12     	; 0xcd2 <BMP180_getp+0x142>
     cde:	46 0e       	add	r4, r22
     ce0:	57 1e       	adc	r5, r23
     ce2:	68 1e       	adc	r6, r24
     ce4:	79 1e       	adc	r7, r25
     ce6:	c4 0c       	add	r12, r4
     ce8:	d5 1c       	adc	r13, r5
     cea:	e6 1c       	adc	r14, r6
     cec:	f7 1c       	adc	r15, r7
     cee:	cc 0c       	add	r12, r12
     cf0:	dd 1c       	adc	r13, r13
     cf2:	ee 1c       	adc	r14, r14
     cf4:	ff 1c       	adc	r15, r15
     cf6:	20 91 30 01 	lds	r18, 0x0130
     cfa:	30 91 31 01 	lds	r19, 0x0131
     cfe:	40 91 32 01 	lds	r20, 0x0132
     d02:	50 91 33 01 	lds	r21, 0x0133
     d06:	2c 19       	sub	r18, r12
     d08:	3d 09       	sbc	r19, r13
     d0a:	4e 09       	sbc	r20, r14
     d0c:	5f 09       	sbc	r21, r15
     d0e:	aa e6       	ldi	r26, 0x6A	; 106
     d10:	b8 e1       	ldi	r27, 0x18	; 24
     d12:	0e 94 43 09 	call	0x1286	; 0x1286 <__muluhisi3>
     d16:	97 fd       	sbrc	r25, 7
     d18:	0d c0       	rjmp	.+26     	; 0xd34 <BMP180_getp+0x1a4>
     d1a:	66 0f       	add	r22, r22
     d1c:	77 1f       	adc	r23, r23
     d1e:	88 1f       	adc	r24, r24
     d20:	99 1f       	adc	r25, r25
     d22:	29 81       	ldd	r18, Y+1	; 0x01
     d24:	3a 81       	ldd	r19, Y+2	; 0x02
     d26:	4b 81       	ldd	r20, Y+3	; 0x03
     d28:	5c 81       	ldd	r21, Y+4	; 0x04
     d2a:	0e 94 f9 08 	call	0x11f2	; 0x11f2 <__udivmodsi4>
     d2e:	49 01       	movw	r8, r18
     d30:	5a 01       	movw	r10, r20
     d32:	0c c0       	rjmp	.+24     	; 0xd4c <BMP180_getp+0x1bc>
     d34:	29 81       	ldd	r18, Y+1	; 0x01
     d36:	3a 81       	ldd	r19, Y+2	; 0x02
     d38:	4b 81       	ldd	r20, Y+3	; 0x03
     d3a:	5c 81       	ldd	r21, Y+4	; 0x04
     d3c:	0e 94 f9 08 	call	0x11f2	; 0x11f2 <__udivmodsi4>
     d40:	49 01       	movw	r8, r18
     d42:	5a 01       	movw	r10, r20
     d44:	88 0c       	add	r8, r8
     d46:	99 1c       	adc	r9, r9
     d48:	aa 1c       	adc	r10, r10
     d4a:	bb 1c       	adc	r11, r11
     d4c:	99 27       	eor	r25, r25
     d4e:	b7 fc       	sbrc	r11, 7
     d50:	9a 95       	dec	r25
     d52:	8b 2d       	mov	r24, r11
     d54:	7a 2d       	mov	r23, r10
     d56:	69 2d       	mov	r22, r9
     d58:	9b 01       	movw	r18, r22
     d5a:	ac 01       	movw	r20, r24
     d5c:	0e 94 d5 08 	call	0x11aa	; 0x11aa <__mulsi3>
     d60:	9b 01       	movw	r18, r22
     d62:	ac 01       	movw	r20, r24
     d64:	ae ed       	ldi	r26, 0xDE	; 222
     d66:	bb e0       	ldi	r27, 0x0B	; 11
     d68:	0e 94 43 09 	call	0x1286	; 0x1286 <__muluhisi3>
     d6c:	6c 01       	movw	r12, r24
     d6e:	ff 24       	eor	r15, r15
     d70:	d7 fc       	sbrc	r13, 7
     d72:	f0 94       	com	r15
     d74:	ef 2c       	mov	r14, r15
     d76:	a3 e4       	ldi	r26, 0x43	; 67
     d78:	b3 ee       	ldi	r27, 0xE3	; 227
     d7a:	a5 01       	movw	r20, r10
     d7c:	94 01       	movw	r18, r8
     d7e:	0e 94 51 09 	call	0x12a2	; 0x12a2 <__mulohisi3>
     d82:	bb 27       	eor	r27, r27
     d84:	97 fd       	sbrc	r25, 7
     d86:	b0 95       	com	r27
     d88:	ab 2f       	mov	r26, r27
     d8a:	c8 0e       	add	r12, r24
     d8c:	d9 1e       	adc	r13, r25
     d8e:	ea 1e       	adc	r14, r26
     d90:	fb 1e       	adc	r15, r27
     d92:	9f ec       	ldi	r25, 0xCF	; 207
     d94:	c9 0e       	add	r12, r25
     d96:	9e e0       	ldi	r25, 0x0E	; 14
     d98:	d9 1e       	adc	r13, r25
     d9a:	e1 1c       	adc	r14, r1
     d9c:	f1 1c       	adc	r15, r1
     d9e:	04 e0       	ldi	r16, 0x04	; 4
     da0:	f5 94       	asr	r15
     da2:	e7 94       	ror	r14
     da4:	d7 94       	ror	r13
     da6:	c7 94       	ror	r12
     da8:	0a 95       	dec	r16
     daa:	d1 f7       	brne	.-12     	; 0xda0 <BMP180_getp+0x210>
     dac:	c8 0c       	add	r12, r8
     dae:	d9 1c       	adc	r13, r9
     db0:	ea 1c       	adc	r14, r10
     db2:	fb 1c       	adc	r15, r11
     db4:	b6 01       	movw	r22, r12
     db6:	c7 01       	movw	r24, r14
     db8:	0f 90       	pop	r0
     dba:	0f 90       	pop	r0
     dbc:	0f 90       	pop	r0
     dbe:	0f 90       	pop	r0
     dc0:	df 91       	pop	r29
     dc2:	cf 91       	pop	r28
     dc4:	1f 91       	pop	r17
     dc6:	0f 91       	pop	r16
     dc8:	ff 90       	pop	r15
     dca:	ef 90       	pop	r14
     dcc:	df 90       	pop	r13
     dce:	cf 90       	pop	r12
     dd0:	bf 90       	pop	r11
     dd2:	af 90       	pop	r10
     dd4:	9f 90       	pop	r9
     dd6:	8f 90       	pop	r8
     dd8:	7f 90       	pop	r7
     dda:	6f 90       	pop	r6
     ddc:	5f 90       	pop	r5
     dde:	4f 90       	pop	r4
     de0:	08 95       	ret

00000de2 <ShowOnLCD>:
     de2:	cf 92       	push	r12
     de4:	df 92       	push	r13
     de6:	ef 92       	push	r14
     de8:	ff 92       	push	r15
     dea:	60 e0       	ldi	r22, 0x00	; 0
     dec:	80 e0       	ldi	r24, 0x00	; 0
     dee:	0e 94 2f 03 	call	0x65e	; 0x65e <lcd_locate>
     df2:	80 e6       	ldi	r24, 0x60	; 96
     df4:	90 e0       	ldi	r25, 0x00	; 0
     df6:	0e 94 71 02 	call	0x4e2	; 0x4e2 <lcd_str>
     dfa:	60 91 50 01 	lds	r22, 0x0150
     dfe:	70 91 51 01 	lds	r23, 0x0151
     e02:	80 91 52 01 	lds	r24, 0x0152
     e06:	90 91 53 01 	lds	r25, 0x0153
     e0a:	2a e0       	ldi	r18, 0x0A	; 10
     e0c:	c2 2e       	mov	r12, r18
     e0e:	d1 2c       	mov	r13, r1
     e10:	e1 2c       	mov	r14, r1
     e12:	f1 2c       	mov	r15, r1
     e14:	a7 01       	movw	r20, r14
     e16:	96 01       	movw	r18, r12
     e18:	0e 94 1b 09 	call	0x1236	; 0x1236 <__divmodsi4>
     e1c:	c9 01       	movw	r24, r18
     e1e:	0e 94 9c 02 	call	0x538	; 0x538 <lcd_int>
     e22:	84 e6       	ldi	r24, 0x64	; 100
     e24:	90 e0       	ldi	r25, 0x00	; 0
     e26:	0e 94 71 02 	call	0x4e2	; 0x4e2 <lcd_str>
     e2a:	60 91 50 01 	lds	r22, 0x0150
     e2e:	70 91 51 01 	lds	r23, 0x0151
     e32:	80 91 52 01 	lds	r24, 0x0152
     e36:	90 91 53 01 	lds	r25, 0x0153
     e3a:	a7 01       	movw	r20, r14
     e3c:	96 01       	movw	r18, r12
     e3e:	0e 94 1b 09 	call	0x1236	; 0x1236 <__divmodsi4>
     e42:	cb 01       	movw	r24, r22
     e44:	0e 94 9c 02 	call	0x538	; 0x538 <lcd_int>
     e48:	86 e6       	ldi	r24, 0x66	; 102
     e4a:	90 e0       	ldi	r25, 0x00	; 0
     e4c:	0e 94 71 02 	call	0x4e2	; 0x4e2 <lcd_str>
     e50:	88 e6       	ldi	r24, 0x68	; 104
     e52:	90 e0       	ldi	r25, 0x00	; 0
     e54:	0e 94 71 02 	call	0x4e2	; 0x4e2 <lcd_str>
     e58:	60 e0       	ldi	r22, 0x00	; 0
     e5a:	81 e0       	ldi	r24, 0x01	; 1
     e5c:	0e 94 2f 03 	call	0x65e	; 0x65e <lcd_locate>
     e60:	8a e6       	ldi	r24, 0x6A	; 106
     e62:	90 e0       	ldi	r25, 0x00	; 0
     e64:	0e 94 71 02 	call	0x4e2	; 0x4e2 <lcd_str>
     e68:	60 91 57 01 	lds	r22, 0x0157
     e6c:	70 91 58 01 	lds	r23, 0x0158
     e70:	80 91 59 01 	lds	r24, 0x0159
     e74:	90 91 5a 01 	lds	r25, 0x015A
     e78:	34 e6       	ldi	r19, 0x64	; 100
     e7a:	c3 2e       	mov	r12, r19
     e7c:	d1 2c       	mov	r13, r1
     e7e:	e1 2c       	mov	r14, r1
     e80:	f1 2c       	mov	r15, r1
     e82:	a7 01       	movw	r20, r14
     e84:	96 01       	movw	r18, r12
     e86:	0e 94 1b 09 	call	0x1236	; 0x1236 <__divmodsi4>
     e8a:	c9 01       	movw	r24, r18
     e8c:	0e 94 9c 02 	call	0x538	; 0x538 <lcd_int>
     e90:	84 e6       	ldi	r24, 0x64	; 100
     e92:	90 e0       	ldi	r25, 0x00	; 0
     e94:	0e 94 71 02 	call	0x4e2	; 0x4e2 <lcd_str>
     e98:	60 91 57 01 	lds	r22, 0x0157
     e9c:	70 91 58 01 	lds	r23, 0x0158
     ea0:	80 91 59 01 	lds	r24, 0x0159
     ea4:	90 91 5a 01 	lds	r25, 0x015A
     ea8:	a7 01       	movw	r20, r14
     eaa:	96 01       	movw	r18, r12
     eac:	0e 94 1b 09 	call	0x1236	; 0x1236 <__divmodsi4>
     eb0:	6a 30       	cpi	r22, 0x0A	; 10
     eb2:	71 05       	cpc	r23, r1
     eb4:	81 05       	cpc	r24, r1
     eb6:	91 05       	cpc	r25, r1
     eb8:	24 f4       	brge	.+8      	; 0xec2 <ShowOnLCD+0xe0>
     eba:	8e e6       	ldi	r24, 0x6E	; 110
     ebc:	90 e0       	ldi	r25, 0x00	; 0
     ebe:	0e 94 71 02 	call	0x4e2	; 0x4e2 <lcd_str>
     ec2:	60 91 57 01 	lds	r22, 0x0157
     ec6:	70 91 58 01 	lds	r23, 0x0158
     eca:	80 91 59 01 	lds	r24, 0x0159
     ece:	90 91 5a 01 	lds	r25, 0x015A
     ed2:	24 e6       	ldi	r18, 0x64	; 100
     ed4:	30 e0       	ldi	r19, 0x00	; 0
     ed6:	40 e0       	ldi	r20, 0x00	; 0
     ed8:	50 e0       	ldi	r21, 0x00	; 0
     eda:	0e 94 1b 09 	call	0x1236	; 0x1236 <__divmodsi4>
     ede:	cb 01       	movw	r24, r22
     ee0:	0e 94 9c 02 	call	0x538	; 0x538 <lcd_int>
     ee4:	80 e7       	ldi	r24, 0x70	; 112
     ee6:	90 e0       	ldi	r25, 0x00	; 0
     ee8:	0e 94 71 02 	call	0x4e2	; 0x4e2 <lcd_str>
     eec:	6a e0       	ldi	r22, 0x0A	; 10
     eee:	80 e0       	ldi	r24, 0x00	; 0
     ef0:	0e 94 2f 03 	call	0x65e	; 0x65e <lcd_locate>
     ef4:	84 e7       	ldi	r24, 0x74	; 116
     ef6:	90 e0       	ldi	r25, 0x00	; 0
     ef8:	0e 94 71 02 	call	0x4e2	; 0x4e2 <lcd_str>
     efc:	80 91 4c 01 	lds	r24, 0x014C
     f00:	90 91 4d 01 	lds	r25, 0x014D
     f04:	0e 94 9c 02 	call	0x538	; 0x538 <lcd_int>
     f08:	88 e7       	ldi	r24, 0x78	; 120
     f0a:	90 e0       	ldi	r25, 0x00	; 0
     f0c:	ff 90       	pop	r15
     f0e:	ef 90       	pop	r14
     f10:	df 90       	pop	r13
     f12:	cf 90       	pop	r12
     f14:	0c 94 71 02 	jmp	0x4e2	; 0x4e2 <lcd_str>

00000f18 <SendToUart>:
     f18:	cf 92       	push	r12
     f1a:	df 92       	push	r13
     f1c:	ef 92       	push	r14
     f1e:	ff 92       	push	r15
     f20:	80 e0       	ldi	r24, 0x00	; 0
     f22:	0e 94 64 00 	call	0xc8	; 0xc8 <tr_cls>
     f26:	43 e0       	ldi	r20, 0x03	; 3
     f28:	64 e0       	ldi	r22, 0x04	; 4
     f2a:	80 e0       	ldi	r24, 0x00	; 0
     f2c:	0e 94 8e 00 	call	0x11c	; 0x11c <tr_attr>
     f30:	60 e0       	ldi	r22, 0x00	; 0
     f32:	81 e0       	ldi	r24, 0x01	; 1
     f34:	0e 94 e5 00 	call	0x1ca	; 0x1ca <tr_locate>
     f38:	8a e7       	ldi	r24, 0x7A	; 122
     f3a:	90 e0       	ldi	r25, 0x00	; 0
     f3c:	0e 94 60 01 	call	0x2c0	; 0x2c0 <uart_puts>
     f40:	40 e0       	ldi	r20, 0x00	; 0
     f42:	61 e0       	ldi	r22, 0x01	; 1
     f44:	80 e0       	ldi	r24, 0x00	; 0
     f46:	0e 94 8e 00 	call	0x11c	; 0x11c <tr_attr>
     f4a:	67 e0       	ldi	r22, 0x07	; 7
     f4c:	82 e0       	ldi	r24, 0x02	; 2
     f4e:	0e 94 e5 00 	call	0x1ca	; 0x1ca <tr_locate>
     f52:	8e e9       	ldi	r24, 0x9E	; 158
     f54:	90 e0       	ldi	r25, 0x00	; 0
     f56:	0e 94 60 01 	call	0x2c0	; 0x2c0 <uart_puts>
     f5a:	64 e1       	ldi	r22, 0x14	; 20
     f5c:	82 e0       	ldi	r24, 0x02	; 2
     f5e:	0e 94 e5 00 	call	0x1ca	; 0x1ca <tr_locate>
     f62:	60 91 50 01 	lds	r22, 0x0150
     f66:	70 91 51 01 	lds	r23, 0x0151
     f6a:	80 91 52 01 	lds	r24, 0x0152
     f6e:	90 91 53 01 	lds	r25, 0x0153
     f72:	4a e0       	ldi	r20, 0x0A	; 10
     f74:	c4 2e       	mov	r12, r20
     f76:	d1 2c       	mov	r13, r1
     f78:	e1 2c       	mov	r14, r1
     f7a:	f1 2c       	mov	r15, r1
     f7c:	a7 01       	movw	r20, r14
     f7e:	96 01       	movw	r18, r12
     f80:	0e 94 1b 09 	call	0x1236	; 0x1236 <__divmodsi4>
     f84:	6a e0       	ldi	r22, 0x0A	; 10
     f86:	70 e0       	ldi	r23, 0x00	; 0
     f88:	c9 01       	movw	r24, r18
     f8a:	0e 94 7a 01 	call	0x2f4	; 0x2f4 <uart_putint>
     f8e:	84 e6       	ldi	r24, 0x64	; 100
     f90:	90 e0       	ldi	r25, 0x00	; 0
     f92:	0e 94 60 01 	call	0x2c0	; 0x2c0 <uart_puts>
     f96:	60 91 50 01 	lds	r22, 0x0150
     f9a:	70 91 51 01 	lds	r23, 0x0151
     f9e:	80 91 52 01 	lds	r24, 0x0152
     fa2:	90 91 53 01 	lds	r25, 0x0153
     fa6:	a7 01       	movw	r20, r14
     fa8:	96 01       	movw	r18, r12
     faa:	0e 94 1b 09 	call	0x1236	; 0x1236 <__divmodsi4>
     fae:	dc 01       	movw	r26, r24
     fb0:	cb 01       	movw	r24, r22
     fb2:	6a e0       	ldi	r22, 0x0A	; 10
     fb4:	70 e0       	ldi	r23, 0x00	; 0
     fb6:	0e 94 7a 01 	call	0x2f4	; 0x2f4 <uart_putint>
     fba:	80 eb       	ldi	r24, 0xB0	; 176
     fbc:	0e 94 4f 01 	call	0x29e	; 0x29e <uart_putc>
     fc0:	83 e4       	ldi	r24, 0x43	; 67
     fc2:	0e 94 4f 01 	call	0x29e	; 0x29e <uart_putc>
     fc6:	8b ea       	ldi	r24, 0xAB	; 171
     fc8:	90 e0       	ldi	r25, 0x00	; 0
     fca:	0e 94 60 01 	call	0x2c0	; 0x2c0 <uart_puts>
     fce:	40 e0       	ldi	r20, 0x00	; 0
     fd0:	62 e0       	ldi	r22, 0x02	; 2
     fd2:	80 e0       	ldi	r24, 0x00	; 0
     fd4:	0e 94 8e 00 	call	0x11c	; 0x11c <tr_attr>
     fd8:	67 e0       	ldi	r22, 0x07	; 7
     fda:	83 e0       	ldi	r24, 0x03	; 3
     fdc:	0e 94 e5 00 	call	0x1ca	; 0x1ca <tr_locate>
     fe0:	8e ea       	ldi	r24, 0xAE	; 174
     fe2:	90 e0       	ldi	r25, 0x00	; 0
     fe4:	0e 94 60 01 	call	0x2c0	; 0x2c0 <uart_puts>
     fe8:	64 e1       	ldi	r22, 0x14	; 20
     fea:	83 e0       	ldi	r24, 0x03	; 3
     fec:	0e 94 e5 00 	call	0x1ca	; 0x1ca <tr_locate>
     ff0:	60 91 57 01 	lds	r22, 0x0157
     ff4:	70 91 58 01 	lds	r23, 0x0158
     ff8:	80 91 59 01 	lds	r24, 0x0159
     ffc:	90 91 5a 01 	lds	r25, 0x015A
    1000:	54 e6       	ldi	r21, 0x64	; 100
    1002:	c5 2e       	mov	r12, r21
    1004:	d1 2c       	mov	r13, r1
    1006:	e1 2c       	mov	r14, r1
    1008:	f1 2c       	mov	r15, r1
    100a:	a7 01       	movw	r20, r14
    100c:	96 01       	movw	r18, r12
    100e:	0e 94 1b 09 	call	0x1236	; 0x1236 <__divmodsi4>
    1012:	6a e0       	ldi	r22, 0x0A	; 10
    1014:	70 e0       	ldi	r23, 0x00	; 0
    1016:	c9 01       	movw	r24, r18
    1018:	0e 94 7a 01 	call	0x2f4	; 0x2f4 <uart_putint>
    101c:	84 e6       	ldi	r24, 0x64	; 100
    101e:	90 e0       	ldi	r25, 0x00	; 0
    1020:	0e 94 60 01 	call	0x2c0	; 0x2c0 <uart_puts>
    1024:	60 91 57 01 	lds	r22, 0x0157
    1028:	70 91 58 01 	lds	r23, 0x0158
    102c:	80 91 59 01 	lds	r24, 0x0159
    1030:	90 91 5a 01 	lds	r25, 0x015A
    1034:	a7 01       	movw	r20, r14
    1036:	96 01       	movw	r18, r12
    1038:	0e 94 1b 09 	call	0x1236	; 0x1236 <__divmodsi4>
    103c:	6a 30       	cpi	r22, 0x0A	; 10
    103e:	71 05       	cpc	r23, r1
    1040:	81 05       	cpc	r24, r1
    1042:	91 05       	cpc	r25, r1
    1044:	24 f4       	brge	.+8      	; 0x104e <SendToUart+0x136>
    1046:	8e e6       	ldi	r24, 0x6E	; 110
    1048:	90 e0       	ldi	r25, 0x00	; 0
    104a:	0e 94 60 01 	call	0x2c0	; 0x2c0 <uart_puts>
    104e:	60 91 57 01 	lds	r22, 0x0157
    1052:	70 91 58 01 	lds	r23, 0x0158
    1056:	80 91 59 01 	lds	r24, 0x0159
    105a:	90 91 5a 01 	lds	r25, 0x015A
    105e:	24 e6       	ldi	r18, 0x64	; 100
    1060:	30 e0       	ldi	r19, 0x00	; 0
    1062:	40 e0       	ldi	r20, 0x00	; 0
    1064:	50 e0       	ldi	r21, 0x00	; 0
    1066:	0e 94 1b 09 	call	0x1236	; 0x1236 <__divmodsi4>
    106a:	dc 01       	movw	r26, r24
    106c:	cb 01       	movw	r24, r22
    106e:	6a e0       	ldi	r22, 0x0A	; 10
    1070:	70 e0       	ldi	r23, 0x00	; 0
    1072:	0e 94 7a 01 	call	0x2f4	; 0x2f4 <uart_putint>
    1076:	80 e7       	ldi	r24, 0x70	; 112
    1078:	90 e0       	ldi	r25, 0x00	; 0
    107a:	0e 94 60 01 	call	0x2c0	; 0x2c0 <uart_puts>
    107e:	40 e0       	ldi	r20, 0x00	; 0
    1080:	64 e0       	ldi	r22, 0x04	; 4
    1082:	80 e0       	ldi	r24, 0x00	; 0
    1084:	0e 94 8e 00 	call	0x11c	; 0x11c <tr_attr>
    1088:	67 e0       	ldi	r22, 0x07	; 7
    108a:	84 e0       	ldi	r24, 0x04	; 4
    108c:	0e 94 e5 00 	call	0x1ca	; 0x1ca <tr_locate>
    1090:	89 eb       	ldi	r24, 0xB9	; 185
    1092:	90 e0       	ldi	r25, 0x00	; 0
    1094:	0e 94 60 01 	call	0x2c0	; 0x2c0 <uart_puts>
    1098:	64 e1       	ldi	r22, 0x14	; 20
    109a:	84 e0       	ldi	r24, 0x04	; 4
    109c:	0e 94 e5 00 	call	0x1ca	; 0x1ca <tr_locate>
    10a0:	6a e0       	ldi	r22, 0x0A	; 10
    10a2:	70 e0       	ldi	r23, 0x00	; 0
    10a4:	80 91 4c 01 	lds	r24, 0x014C
    10a8:	90 91 4d 01 	lds	r25, 0x014D
    10ac:	0e 94 7a 01 	call	0x2f4	; 0x2f4 <uart_putint>
    10b0:	85 e2       	ldi	r24, 0x25	; 37
    10b2:	0e 94 4f 01 	call	0x29e	; 0x29e <uart_putc>
    10b6:	43 e0       	ldi	r20, 0x03	; 3
    10b8:	64 e0       	ldi	r22, 0x04	; 4
    10ba:	80 e0       	ldi	r24, 0x00	; 0
    10bc:	0e 94 8e 00 	call	0x11c	; 0x11c <tr_attr>
    10c0:	60 e0       	ldi	r22, 0x00	; 0
    10c2:	85 e0       	ldi	r24, 0x05	; 5
    10c4:	0e 94 e5 00 	call	0x1ca	; 0x1ca <tr_locate>
    10c8:	86 ec       	ldi	r24, 0xC6	; 198
    10ca:	90 e0       	ldi	r25, 0x00	; 0
    10cc:	0e 94 60 01 	call	0x2c0	; 0x2c0 <uart_puts>
    10d0:	8a ee       	ldi	r24, 0xEA	; 234
    10d2:	90 e0       	ldi	r25, 0x00	; 0
    10d4:	0e 94 60 01 	call	0x2c0	; 0x2c0 <uart_puts>
    10d8:	ff 90       	pop	r15
    10da:	ef 90       	pop	r14
    10dc:	df 90       	pop	r13
    10de:	cf 90       	pop	r12
    10e0:	0c 94 03 01 	jmp	0x206	; 0x206 <tr_create_win>

000010e4 <main>:
    10e4:	8f ef       	ldi	r24, 0xFF	; 255
    10e6:	91 ea       	ldi	r25, 0xA1	; 161
    10e8:	01 97       	sbiw	r24, 0x01	; 1
    10ea:	f1 f7       	brne	.-4      	; 0x10e8 <main+0x4>
    10ec:	00 c0       	rjmp	.+0      	; 0x10ee <main+0xa>
    10ee:	00 00       	nop
    10f0:	0e 94 39 03 	call	0x672	; 0x672 <lcd_init>
    10f4:	0e 94 36 03 	call	0x66c	; 0x66c <lcd_cls>
    10f8:	84 e6       	ldi	r24, 0x64	; 100
    10fa:	90 e0       	ldi	r25, 0x00	; 0
    10fc:	0e 94 82 03 	call	0x704	; 0x704 <i2cSetBitrate>
    1100:	78 94       	sei
    1102:	85 e0       	ldi	r24, 0x05	; 5
    1104:	90 e0       	ldi	r25, 0x00	; 0
    1106:	0e 94 38 01 	call	0x270	; 0x270 <USART_Init>
    110a:	60 e7       	ldi	r22, 0x70	; 112
    110c:	70 e0       	ldi	r23, 0x00	; 0
    110e:	80 e8       	ldi	r24, 0x80	; 128
    1110:	0e 94 ee 02 	call	0x5dc	; 0x5dc <lcd_defchar_P>
    1114:	0e 94 76 04 	call	0x8ec	; 0x8ec <BMP180_init>
    1118:	0e 94 14 04 	call	0x828	; 0x828 <HTU21_init>
    111c:	0e 94 62 05 	call	0xac4	; 0xac4 <BMP180_gett>
    1120:	60 93 50 01 	sts	0x0150, r22
    1124:	70 93 51 01 	sts	0x0151, r23
    1128:	80 93 52 01 	sts	0x0152, r24
    112c:	90 93 53 01 	sts	0x0153, r25
    1130:	0e 94 c8 05 	call	0xb90	; 0xb90 <BMP180_getp>
    1134:	60 93 57 01 	sts	0x0157, r22
    1138:	70 93 58 01 	sts	0x0158, r23
    113c:	80 93 59 01 	sts	0x0159, r24
    1140:	90 93 5a 01 	sts	0x015A, r25
    1144:	0e 94 f1 06 	call	0xde2	; 0xde2 <ShowOnLCD>
    1148:	0e 94 8c 07 	call	0xf18	; 0xf18 <SendToUart>
    114c:	64 e5       	ldi	r22, 0x54	; 84
    114e:	71 e0       	ldi	r23, 0x01	; 1
    1150:	83 e0       	ldi	r24, 0x03	; 3
    1152:	0e 94 4a 04 	call	0x894	; 0x894 <HTU21_read_humid>
    1156:	80 91 55 01 	lds	r24, 0x0155
    115a:	86 95       	lsr	r24
    115c:	86 95       	lsr	r24
    115e:	90 91 54 01 	lds	r25, 0x0154
    1162:	d9 2f       	mov	r29, r25
    1164:	20 e0       	ldi	r18, 0x00	; 0
    1166:	c2 2f       	mov	r28, r18
    1168:	9e 01       	movw	r18, r28
    116a:	28 2b       	or	r18, r24
    116c:	30 93 5c 01 	sts	0x015C, r19
    1170:	20 93 5b 01 	sts	0x015B, r18
    1174:	ad e7       	ldi	r26, 0x7D	; 125
    1176:	b0 e0       	ldi	r27, 0x00	; 0
    1178:	0e 94 37 09 	call	0x126e	; 0x126e <__umulhisi3>
    117c:	aa 27       	eor	r26, r26
    117e:	bb 27       	eor	r27, r27
    1180:	06 97       	sbiw	r24, 0x06	; 6
    1182:	a1 09       	sbc	r26, r1
    1184:	b1 09       	sbc	r27, r1
    1186:	80 93 4c 01 	sts	0x014C, r24
    118a:	90 93 4d 01 	sts	0x014D, r25
    118e:	a0 93 4e 01 	sts	0x014E, r26
    1192:	b0 93 4f 01 	sts	0x014F, r27
    1196:	8f ef       	ldi	r24, 0xFF	; 255
    1198:	9f ed       	ldi	r25, 0xDF	; 223
    119a:	20 e1       	ldi	r18, 0x10	; 16
    119c:	81 50       	subi	r24, 0x01	; 1
    119e:	90 40       	sbci	r25, 0x00	; 0
    11a0:	20 40       	sbci	r18, 0x00	; 0
    11a2:	e1 f7       	brne	.-8      	; 0x119c <main+0xb8>
    11a4:	00 c0       	rjmp	.+0      	; 0x11a6 <main+0xc2>
    11a6:	00 00       	nop
    11a8:	b9 cf       	rjmp	.-142    	; 0x111c <main+0x38>

000011aa <__mulsi3>:
    11aa:	db 01       	movw	r26, r22
    11ac:	8f 93       	push	r24
    11ae:	9f 93       	push	r25
    11b0:	0e 94 43 09 	call	0x1286	; 0x1286 <__muluhisi3>
    11b4:	bf 91       	pop	r27
    11b6:	af 91       	pop	r26
    11b8:	a2 9f       	mul	r26, r18
    11ba:	80 0d       	add	r24, r0
    11bc:	91 1d       	adc	r25, r1
    11be:	a3 9f       	mul	r26, r19
    11c0:	90 0d       	add	r25, r0
    11c2:	b2 9f       	mul	r27, r18
    11c4:	90 0d       	add	r25, r0
    11c6:	11 24       	eor	r1, r1
    11c8:	08 95       	ret

000011ca <__udivmodhi4>:
    11ca:	aa 1b       	sub	r26, r26
    11cc:	bb 1b       	sub	r27, r27
    11ce:	51 e1       	ldi	r21, 0x11	; 17
    11d0:	07 c0       	rjmp	.+14     	; 0x11e0 <__udivmodhi4_ep>

000011d2 <__udivmodhi4_loop>:
    11d2:	aa 1f       	adc	r26, r26
    11d4:	bb 1f       	adc	r27, r27
    11d6:	a6 17       	cp	r26, r22
    11d8:	b7 07       	cpc	r27, r23
    11da:	10 f0       	brcs	.+4      	; 0x11e0 <__udivmodhi4_ep>
    11dc:	a6 1b       	sub	r26, r22
    11de:	b7 0b       	sbc	r27, r23

000011e0 <__udivmodhi4_ep>:
    11e0:	88 1f       	adc	r24, r24
    11e2:	99 1f       	adc	r25, r25
    11e4:	5a 95       	dec	r21
    11e6:	a9 f7       	brne	.-22     	; 0x11d2 <__udivmodhi4_loop>
    11e8:	80 95       	com	r24
    11ea:	90 95       	com	r25
    11ec:	bc 01       	movw	r22, r24
    11ee:	cd 01       	movw	r24, r26
    11f0:	08 95       	ret

000011f2 <__udivmodsi4>:
    11f2:	a1 e2       	ldi	r26, 0x21	; 33
    11f4:	1a 2e       	mov	r1, r26
    11f6:	aa 1b       	sub	r26, r26
    11f8:	bb 1b       	sub	r27, r27
    11fa:	fd 01       	movw	r30, r26
    11fc:	0d c0       	rjmp	.+26     	; 0x1218 <__udivmodsi4_ep>

000011fe <__udivmodsi4_loop>:
    11fe:	aa 1f       	adc	r26, r26
    1200:	bb 1f       	adc	r27, r27
    1202:	ee 1f       	adc	r30, r30
    1204:	ff 1f       	adc	r31, r31
    1206:	a2 17       	cp	r26, r18
    1208:	b3 07       	cpc	r27, r19
    120a:	e4 07       	cpc	r30, r20
    120c:	f5 07       	cpc	r31, r21
    120e:	20 f0       	brcs	.+8      	; 0x1218 <__udivmodsi4_ep>
    1210:	a2 1b       	sub	r26, r18
    1212:	b3 0b       	sbc	r27, r19
    1214:	e4 0b       	sbc	r30, r20
    1216:	f5 0b       	sbc	r31, r21

00001218 <__udivmodsi4_ep>:
    1218:	66 1f       	adc	r22, r22
    121a:	77 1f       	adc	r23, r23
    121c:	88 1f       	adc	r24, r24
    121e:	99 1f       	adc	r25, r25
    1220:	1a 94       	dec	r1
    1222:	69 f7       	brne	.-38     	; 0x11fe <__udivmodsi4_loop>
    1224:	60 95       	com	r22
    1226:	70 95       	com	r23
    1228:	80 95       	com	r24
    122a:	90 95       	com	r25
    122c:	9b 01       	movw	r18, r22
    122e:	ac 01       	movw	r20, r24
    1230:	bd 01       	movw	r22, r26
    1232:	cf 01       	movw	r24, r30
    1234:	08 95       	ret

00001236 <__divmodsi4>:
    1236:	05 2e       	mov	r0, r21
    1238:	97 fb       	bst	r25, 7
    123a:	16 f4       	brtc	.+4      	; 0x1240 <__divmodsi4+0xa>
    123c:	00 94       	com	r0
    123e:	07 d0       	rcall	.+14     	; 0x124e <__divmodsi4_neg1>
    1240:	57 fd       	sbrc	r21, 7
    1242:	0d d0       	rcall	.+26     	; 0x125e <__divmodsi4_neg2>
    1244:	0e 94 f9 08 	call	0x11f2	; 0x11f2 <__udivmodsi4>
    1248:	07 fc       	sbrc	r0, 7
    124a:	09 d0       	rcall	.+18     	; 0x125e <__divmodsi4_neg2>
    124c:	7e f4       	brtc	.+30     	; 0x126c <__divmodsi4_exit>

0000124e <__divmodsi4_neg1>:
    124e:	90 95       	com	r25
    1250:	80 95       	com	r24
    1252:	70 95       	com	r23
    1254:	61 95       	neg	r22
    1256:	7f 4f       	sbci	r23, 0xFF	; 255
    1258:	8f 4f       	sbci	r24, 0xFF	; 255
    125a:	9f 4f       	sbci	r25, 0xFF	; 255
    125c:	08 95       	ret

0000125e <__divmodsi4_neg2>:
    125e:	50 95       	com	r21
    1260:	40 95       	com	r20
    1262:	30 95       	com	r19
    1264:	21 95       	neg	r18
    1266:	3f 4f       	sbci	r19, 0xFF	; 255
    1268:	4f 4f       	sbci	r20, 0xFF	; 255
    126a:	5f 4f       	sbci	r21, 0xFF	; 255

0000126c <__divmodsi4_exit>:
    126c:	08 95       	ret

0000126e <__umulhisi3>:
    126e:	a2 9f       	mul	r26, r18
    1270:	b0 01       	movw	r22, r0
    1272:	b3 9f       	mul	r27, r19
    1274:	c0 01       	movw	r24, r0
    1276:	a3 9f       	mul	r26, r19
    1278:	01 d0       	rcall	.+2      	; 0x127c <__umulhisi3+0xe>
    127a:	b2 9f       	mul	r27, r18
    127c:	70 0d       	add	r23, r0
    127e:	81 1d       	adc	r24, r1
    1280:	11 24       	eor	r1, r1
    1282:	91 1d       	adc	r25, r1
    1284:	08 95       	ret

00001286 <__muluhisi3>:
    1286:	0e 94 37 09 	call	0x126e	; 0x126e <__umulhisi3>
    128a:	a5 9f       	mul	r26, r21
    128c:	90 0d       	add	r25, r0
    128e:	b4 9f       	mul	r27, r20
    1290:	90 0d       	add	r25, r0
    1292:	a4 9f       	mul	r26, r20
    1294:	80 0d       	add	r24, r0
    1296:	91 1d       	adc	r25, r1
    1298:	11 24       	eor	r1, r1
    129a:	08 95       	ret

0000129c <__mulshisi3>:
    129c:	b7 ff       	sbrs	r27, 7
    129e:	0c 94 43 09 	jmp	0x1286	; 0x1286 <__muluhisi3>

000012a2 <__mulohisi3>:
    12a2:	0e 94 43 09 	call	0x1286	; 0x1286 <__muluhisi3>
    12a6:	82 1b       	sub	r24, r18
    12a8:	93 0b       	sbc	r25, r19
    12aa:	08 95       	ret

000012ac <itoa>:
    12ac:	fb 01       	movw	r30, r22
    12ae:	9f 01       	movw	r18, r30
    12b0:	e8 94       	clt
    12b2:	42 30       	cpi	r20, 0x02	; 2
    12b4:	c4 f0       	brlt	.+48     	; 0x12e6 <itoa+0x3a>
    12b6:	45 32       	cpi	r20, 0x25	; 37
    12b8:	b4 f4       	brge	.+44     	; 0x12e6 <itoa+0x3a>
    12ba:	4a 30       	cpi	r20, 0x0A	; 10
    12bc:	29 f4       	brne	.+10     	; 0x12c8 <itoa+0x1c>
    12be:	97 fb       	bst	r25, 7
    12c0:	1e f4       	brtc	.+6      	; 0x12c8 <itoa+0x1c>
    12c2:	90 95       	com	r25
    12c4:	81 95       	neg	r24
    12c6:	9f 4f       	sbci	r25, 0xFF	; 255
    12c8:	64 2f       	mov	r22, r20
    12ca:	77 27       	eor	r23, r23
    12cc:	0e 94 e5 08 	call	0x11ca	; 0x11ca <__udivmodhi4>
    12d0:	80 5d       	subi	r24, 0xD0	; 208
    12d2:	8a 33       	cpi	r24, 0x3A	; 58
    12d4:	0c f0       	brlt	.+2      	; 0x12d8 <itoa+0x2c>
    12d6:	89 5d       	subi	r24, 0xD9	; 217
    12d8:	81 93       	st	Z+, r24
    12da:	cb 01       	movw	r24, r22
    12dc:	00 97       	sbiw	r24, 0x00	; 0
    12de:	a1 f7       	brne	.-24     	; 0x12c8 <itoa+0x1c>
    12e0:	16 f4       	brtc	.+4      	; 0x12e6 <itoa+0x3a>
    12e2:	5d e2       	ldi	r21, 0x2D	; 45
    12e4:	51 93       	st	Z+, r21
    12e6:	10 82       	st	Z, r1
    12e8:	c9 01       	movw	r24, r18
    12ea:	0c 94 b3 09 	jmp	0x1366	; 0x1366 <strrev>

000012ee <ltoa>:
    12ee:	fa 01       	movw	r30, r20
    12f0:	cf 93       	push	r28
    12f2:	ff 93       	push	r31
    12f4:	ef 93       	push	r30
    12f6:	22 30       	cpi	r18, 0x02	; 2
    12f8:	44 f1       	brlt	.+80     	; 0x134a <ltoa+0x5c>
    12fa:	25 32       	cpi	r18, 0x25	; 37
    12fc:	34 f5       	brge	.+76     	; 0x134a <ltoa+0x5c>
    12fe:	c2 2f       	mov	r28, r18
    1300:	e8 94       	clt
    1302:	ca 30       	cpi	r28, 0x0A	; 10
    1304:	49 f4       	brne	.+18     	; 0x1318 <ltoa+0x2a>
    1306:	97 fb       	bst	r25, 7
    1308:	3e f4       	brtc	.+14     	; 0x1318 <ltoa+0x2a>
    130a:	90 95       	com	r25
    130c:	80 95       	com	r24
    130e:	70 95       	com	r23
    1310:	61 95       	neg	r22
    1312:	7f 4f       	sbci	r23, 0xFF	; 255
    1314:	8f 4f       	sbci	r24, 0xFF	; 255
    1316:	9f 4f       	sbci	r25, 0xFF	; 255
    1318:	2c 2f       	mov	r18, r28
    131a:	33 27       	eor	r19, r19
    131c:	44 27       	eor	r20, r20
    131e:	55 27       	eor	r21, r21
    1320:	ff 93       	push	r31
    1322:	ef 93       	push	r30
    1324:	0e 94 f9 08 	call	0x11f2	; 0x11f2 <__udivmodsi4>
    1328:	ef 91       	pop	r30
    132a:	ff 91       	pop	r31
    132c:	60 5d       	subi	r22, 0xD0	; 208
    132e:	6a 33       	cpi	r22, 0x3A	; 58
    1330:	0c f0       	brlt	.+2      	; 0x1334 <ltoa+0x46>
    1332:	69 5d       	subi	r22, 0xD9	; 217
    1334:	61 93       	st	Z+, r22
    1336:	b9 01       	movw	r22, r18
    1338:	ca 01       	movw	r24, r20
    133a:	60 50       	subi	r22, 0x00	; 0
    133c:	70 40       	sbci	r23, 0x00	; 0
    133e:	80 40       	sbci	r24, 0x00	; 0
    1340:	90 40       	sbci	r25, 0x00	; 0
    1342:	51 f7       	brne	.-44     	; 0x1318 <ltoa+0x2a>
    1344:	16 f4       	brtc	.+4      	; 0x134a <ltoa+0x5c>
    1346:	cd e2       	ldi	r28, 0x2D	; 45
    1348:	c1 93       	st	Z+, r28
    134a:	10 82       	st	Z, r1
    134c:	8f 91       	pop	r24
    134e:	9f 91       	pop	r25
    1350:	cf 91       	pop	r28
    1352:	0c 94 b3 09 	jmp	0x1366	; 0x1366 <strrev>

00001356 <__eerd_byte_m32>:
    1356:	e1 99       	sbic	0x1c, 1	; 28
    1358:	fe cf       	rjmp	.-4      	; 0x1356 <__eerd_byte_m32>
    135a:	9f bb       	out	0x1f, r25	; 31
    135c:	8e bb       	out	0x1e, r24	; 30
    135e:	e0 9a       	sbi	0x1c, 0	; 28
    1360:	99 27       	eor	r25, r25
    1362:	8d b3       	in	r24, 0x1d	; 29
    1364:	08 95       	ret

00001366 <strrev>:
    1366:	dc 01       	movw	r26, r24
    1368:	fc 01       	movw	r30, r24
    136a:	67 2f       	mov	r22, r23
    136c:	71 91       	ld	r23, Z+
    136e:	77 23       	and	r23, r23
    1370:	e1 f7       	brne	.-8      	; 0x136a <strrev+0x4>
    1372:	32 97       	sbiw	r30, 0x02	; 2
    1374:	04 c0       	rjmp	.+8      	; 0x137e <strrev+0x18>
    1376:	7c 91       	ld	r23, X
    1378:	6d 93       	st	X+, r22
    137a:	70 83       	st	Z, r23
    137c:	62 91       	ld	r22, -Z
    137e:	ae 17       	cp	r26, r30
    1380:	bf 07       	cpc	r27, r31
    1382:	c8 f3       	brcs	.-14     	; 0x1376 <strrev+0x10>
    1384:	08 95       	ret

00001386 <_exit>:
    1386:	f8 94       	cli

00001388 <__stop_program>:
    1388:	ff cf       	rjmp	.-2      	; 0x1388 <__stop_program>
